
a.mingw.elf:     file format elf32-m68k


Disassembly of section .text:

00000000 <_start>:
       0:	       48e7 3020      	movem.l d2-d3/a2,-(sp)
       4:	       263c 0000 4000 	move.l #16384,d3
       a:	       0483 0000 4000 	subi.l #16384,d3
      10:	       e483           	asr.l #2,d3
      12:	/----- 6712           	beq.s 26 <_start+0x26>
      14:	|      45f9 0000 4000 	lea 4000 <incbin_image_start>,a2
      1a:	|      7400           	moveq #0,d2
      1c:	|  /-> 205a           	movea.l (a2)+,a0
      1e:	|  |   4e90           	jsr (a0)
      20:	|  |   5282           	addq.l #1,d2
      22:	|  |   b483           	cmp.l d3,d2
      24:	|  \-- 66f6           	bne.s 1c <_start+0x1c>
      26:	\----> 263c 0000 4000 	move.l #16384,d3
      2c:	       0483 0000 4000 	subi.l #16384,d3
      32:	       e483           	asr.l #2,d3
      34:	/----- 6712           	beq.s 48 <_start+0x48>
      36:	|      45f9 0000 4000 	lea 4000 <incbin_image_start>,a2
      3c:	|      7400           	moveq #0,d2
      3e:	|  /-> 205a           	movea.l (a2)+,a0
      40:	|  |   4e90           	jsr (a0)
      42:	|  |   5282           	addq.l #1,d2
      44:	|  |   b483           	cmp.l d3,d2
      46:	|  \-- 66f6           	bne.s 3e <_start+0x3e>
      48:	\----> 4eb9 0000 0074 	jsr 74 <main>
      4e:	       243c 0000 4000 	move.l #16384,d2
      54:	       0482 0000 4000 	subi.l #16384,d2
      5a:	       e482           	asr.l #2,d2
      5c:	/----- 6710           	beq.s 6e <_start+0x6e>
      5e:	|      45f9 0000 4000 	lea 4000 <incbin_image_start>,a2
      64:	|  /-> 5382           	subq.l #1,d2
      66:	|  |   2062           	movea.l -(a2),a0
      68:	|  |   4e90           	jsr (a0)
      6a:	|  |   4a82           	tst.l d2
      6c:	|  \-- 66f6           	bne.s 64 <_start+0x64>
      6e:	\----> 4cdf 040c      	movem.l (sp)+,d2-d3/a2
      72:	       4e75           	rts

00000074 <main>:
      74:	                                                                4e55 ffc0      	link.w a5,#-64
      78:	                                                                48e7 393a      	movem.l d2-d4/d7/a2-a4/a6,-(sp)
      7c:	                                                                2c78 0004      	movea.l 4 <_start+0x4>,a6
      80:	                                                                23ce 0001 1c96 	move.l a6,11c96 <SysBase>
      86:	                                                                23fc 00df f000 	move.l #14675968,11ca0 <custom>
      8c:	                                                                0001 1ca0 
      90:	                                                                43f9 0000 2c8b 	lea 2c8b <incbin_player_end+0x5d>,a1
      96:	                                                                7000           	moveq #0,d0
      98:	                                                                4eae fdd8      	jsr -552(a6)
      9c:	                                                                23c0 0001 1c92 	move.l d0,11c92 <GfxBase>
      a2:	      /-------------------------------------------------------- 6700 0a24      	beq.w ac8 <main+0xa54>
      a6:	      |                                                         2c79 0001 1c96 	movea.l 11c96 <SysBase>,a6
      ac:	      |                                                         43f9 0000 2c9c 	lea 2c9c <incbin_player_end+0x6e>,a1
      b2:	      |                                                         7000           	moveq #0,d0
      b4:	      |                                                         4eae fdd8      	jsr -552(a6)
      b8:	      |                                                         23c0 0001 1c8e 	move.l d0,11c8e <DOSBase>
      be:	/-----|-------------------------------------------------------- 6700 0998      	beq.w a58 <main+0x9e4>
      c2:	|  /--|-------------------------------------------------------> 4879 0000 2ca8 	pea 2ca8 <incbin_player_end+0x7a>
      c8:	|  |  |                                                         4eb9 0000 0cba 	jsr cba <KPrintF>
      ce:	|  |  |                                                         2c79 0001 1c8e 	movea.l 11c8e <DOSBase>,a6
      d4:	|  |  |                                                         4eae ffc4      	jsr -60(a6)
      d8:	|  |  |                                                         2c79 0001 1c8e 	movea.l 11c8e <DOSBase>,a6
      de:	|  |  |                                                         2200           	move.l d0,d1
      e0:	|  |  |                                                         243c 0000 2cc4 	move.l #11460,d2
      e6:	|  |  |                                                         760f           	moveq #15,d3
      e8:	|  |  |                                                         4eae ffd0      	jsr -48(a6)
      ec:	|  |  |                                                         2c79 0001 1c8e 	movea.l 11c8e <DOSBase>,a6
      f2:	|  |  |                                                         7232           	moveq #50,d1
      f4:	|  |  |                                                         4eae ff3a      	jsr -198(a6)
      f8:	|  |  |                                                         4878 0001      	pea 1 <_start+0x1>
      fc:	|  |  |                                                         49f9 0000 0d2c 	lea d2c <warpmode>,a4
     102:	|  |  |                                                         4e94           	jsr (a4)
     104:	|  |  |                                                         41f9 0001 0802 	lea 10802 <incbin_module_start>,a0
     10a:	|  |  |                                                         93c9           	suba.l a1,a1
     10c:	|  |  |                                                         95ca           	suba.l a2,a2
     10e:	|  |  |                                                         47f9 0000 12c8 	lea 12c8 <incbin_player_start>,a3
     114:	|  |  |                                                         48e7 7f0e      	movem.l d1-d7/a4-a6,-(sp)
     118:	|  |  |                                                         4e93           	jsr (a3)
     11a:	|  |  |                                                         4cdf 70fe      	movem.l (sp)+,d1-d7/a4-a6
     11e:	|  |  |                                                         508f           	addq.l #8,sp
     120:	|  |  |                                                         4a80           	tst.l d0
     122:	|  |  |  /----------------------------------------------------- 6600 08ae      	bne.w 9d2 <main+0x95e>
     126:	|  |  |  |  /-------------------------------------------------> 42a7           	clr.l -(sp)
     128:	|  |  |  |  |                                                   4e94           	jsr (a4)
     12a:	|  |  |  |  |                                                   2c79 0001 1c92 	movea.l 11c92 <GfxBase>,a6
     130:	|  |  |  |  |                                                   23ee 0022 0001 	move.l 34(a6),11c7c <ActiView>
     136:	|  |  |  |  |                                                   1c7c 
     138:	|  |  |  |  |                                                   4eae fe38      	jsr -456(a6)
     13c:	|  |  |  |  |                                                   2c79 0001 1c92 	movea.l 11c92 <GfxBase>,a6
     142:	|  |  |  |  |                                                   4eae ff1c      	jsr -228(a6)
     146:	|  |  |  |  |                                                   2c79 0001 1c96 	movea.l 11c96 <SysBase>,a6
     14c:	|  |  |  |  |                                                   4eae ff88      	jsr -120(a6)
     150:	|  |  |  |  |                                                   2079 0001 1ca0 	movea.l 11ca0 <custom>,a0
     156:	|  |  |  |  |                                                   3028 0010      	move.w 16(a0),d0
     15a:	|  |  |  |  |                                                   33c0 0001 1c80 	move.w d0,11c80 <SystemADKCON>
     160:	|  |  |  |  |                                                   3028 001c      	move.w 28(a0),d0
     164:	|  |  |  |  |                                                   33c0 0001 1c84 	move.w d0,11c84 <SystemInts>
     16a:	|  |  |  |  |                                                   3028 0002      	move.w 2(a0),d0
     16e:	|  |  |  |  |                                                   33c0 0001 1c82 	move.w d0,11c82 <SystemDMA>
     174:	|  |  |  |  |                                                   317c 7fff 009a 	move.w #32767,154(a0)
     17a:	|  |  |  |  |                                                   317c 7fff 009c 	move.w #32767,156(a0)
     180:	|  |  |  |  |                                                   45f9 0000 0b88 	lea b88 <WaitVbl>,a2
     186:	|  |  |  |  |                                                   4e92           	jsr (a2)
     188:	|  |  |  |  |                                                   4e92           	jsr (a2)
     18a:	|  |  |  |  |                                                   2079 0001 1ca0 	movea.l 11ca0 <custom>,a0
     190:	|  |  |  |  |                                                   317c 7fff 0096 	move.w #32767,150(a0)
     196:	|  |  |  |  |                                                   588f           	addq.l #4,sp
     198:	|  |  |  |  |                                                   7200           	moveq #0,d1
     19a:	|  |  |  |  |        /----------------------------------------> 2001           	move.l d1,d0
     19c:	|  |  |  |  |        |                                          0680 0000 00c0 	addi.l #192,d0
     1a2:	|  |  |  |  |        |                                          d080           	add.l d0,d0
     1a4:	|  |  |  |  |        |                                          31bc 0000 0800 	move.w #0,(0,a0,d0.l)
     1aa:	|  |  |  |  |        |                                          5281           	addq.l #1,d1
     1ac:	|  |  |  |  |        |                                          7020           	moveq #32,d0
     1ae:	|  |  |  |  |        |                                          b081           	cmp.l d1,d0
     1b0:	|  |  |  |  |        +----------------------------------------- 66e8           	bne.s 19a <main+0x126>
     1b2:	|  |  |  |  |        |                                          2c79 0001 1c92 	movea.l 11c92 <GfxBase>,a6
     1b8:	|  |  |  |  |        |                                          93c9           	suba.l a1,a1
     1ba:	|  |  |  |  |        |                                          4eae ff22      	jsr -222(a6)
     1be:	|  |  |  |  |        |                                          2c79 0001 1c92 	movea.l 11c92 <GfxBase>,a6
     1c4:	|  |  |  |  |        |                                          4eae fef2      	jsr -270(a6)
     1c8:	|  |  |  |  |        |                                          2c79 0001 1c92 	movea.l 11c92 <GfxBase>,a6
     1ce:	|  |  |  |  |        |                                          4eae fef2      	jsr -270(a6)
     1d2:	|  |  |  |  |        |                                          4e92           	jsr (a2)
     1d4:	|  |  |  |  |        |                                          4e92           	jsr (a2)
     1d6:	|  |  |  |  |        |                                          3b7c 4e7a ffce 	move.w #20090,-50(a5)
     1dc:	|  |  |  |  |        |                                          3b7c 0801 ffd0 	move.w #2049,-48(a5)
     1e2:	|  |  |  |  |        |                                          3b7c 4e73 ffd2 	move.w #20083,-46(a5)
     1e8:	|  |  |  |  |        |                                          2c79 0001 1c96 	movea.l 11c96 <SysBase>,a6
     1ee:	|  |  |  |  |        |                                          082e 0000 0129 	btst #0,297(a6)
     1f4:	|  |  |  |  |  /-----|----------------------------------------- 6700 08fe      	beq.w af4 <main+0xa80>
     1f8:	|  |  |  |  |  |     |                                          7ece           	moveq #-50,d7
     1fa:	|  |  |  |  |  |     |                                          de8d           	add.l a5,d7
     1fc:	|  |  |  |  |  |     |                                          cf8d           	exg d7,a5
     1fe:	|  |  |  |  |  |     |                                          4eae ffe2      	jsr -30(a6)
     202:	|  |  |  |  |  |     |                                          cf8d           	exg d7,a5
     204:	|  |  |  |  |  |     |                                          23c0 0001 1c8a 	move.l d0,11c8a <VBR>
     20a:	|  |  |  |  |  |     |                                          2079 0001 1c8a 	movea.l 11c8a <VBR>,a0
     210:	|  |  |  |  |  |     |                                          2028 006c      	move.l 108(a0),d0
     214:	|  |  |  |  |  |     |                                          23c0 0001 1c86 	move.l d0,11c86 <SystemIrq>
     21a:	|  |  |  |  |  |     |                                          4e92           	jsr (a2)
     21c:	|  |  |  |  |  |     |                                          2c79 0001 1c96 	movea.l 11c96 <SysBase>,a6
     222:	|  |  |  |  |  |     |                                          203c 0000 0400 	move.l #1024,d0
     228:	|  |  |  |  |  |     |                                          7202           	moveq #2,d1
     22a:	|  |  |  |  |  |     |                                          4eae ff3a      	jsr -198(a6)
     22e:	|  |  |  |  |  |     |                                          2640           	movea.l d0,a3
     230:	|  |  |  |  |  |     |                                          42ad ffd6      	clr.l -42(a5)
     234:	|  |  |  |  |  |     |                                          42ad ffda      	clr.l -38(a5)
     238:	|  |  |  |  |  |     |                                          42ad ffde      	clr.l -34(a5)
     23c:	|  |  |  |  |  |     |                                          42ad ffe2      	clr.l -30(a5)
     240:	|  |  |  |  |  |     |                                          42ad ffe6      	clr.l -26(a5)
     244:	|  |  |  |  |  |     |                                          42ad ffea      	clr.l -22(a5)
     248:	|  |  |  |  |  |     |                                          42ad ffee      	clr.l -18(a5)
     24c:	|  |  |  |  |  |     |                                          42ad fff2      	clr.l -14(a5)
     250:	|  |  |  |  |  |     |                                          426d fff6      	clr.w -10(a5)
     254:	|  |  |  |  |  |     |                                          243c 0000 4000 	move.l #16384,d2
     25a:	|  |  |  |  |  |     |                                          2b42 ffce      	move.l d2,-50(a5)
     25e:	|  |  |  |  |  |     |                                          2b7c 0000 c800 	move.l #51200,-46(a5)
     264:	|  |  |  |  |  |     |                                          ffd2 
     266:	|  |  |  |  |  |     |                                          426d fff8      	clr.w -8(a5)
     26a:	|  |  |  |  |  |     |                                          3b7c 0140 fffa 	move.w #320,-6(a5)
     270:	|  |  |  |  |  |     |                                          3b7c 0100 fffc 	move.w #256,-4(a5)
     276:	|  |  |  |  |  |     |                                          3b7c 0005 fffe 	move.w #5,-2(a5)
     27c:	|  |  |  |  |  |     |                                          1b7c 0069 ffd6 	move.b #105,-42(a5)
     282:	|  |  |  |  |  |     |                                          706d           	moveq #109,d0
     284:	|  |  |  |  |  |     |                                          41ed ffd7      	lea -41(a5),a0
     288:	|  |  |  |  |  |     |                                          43f9 0000 2c78 	lea 2c78 <incbin_player_end+0x4a>,a1
     28e:	|  |  |  |  |  |     |                                          49ed fff5      	lea -11(a5),a4
     292:	|  |  |  |  |  |  /--|----------------------------------------> 5289           	addq.l #1,a1
     294:	|  |  |  |  |  |  |  |                                          10c0           	move.b d0,(a0)+
     296:	|  |  |  |  |  |  |  |                                          1011           	move.b (a1),d0
     298:	|  |  |  |  |  |  |  |                                      /-- 6704           	beq.s 29e <main+0x22a>
     29a:	|  |  |  |  |  |  |  |                                      |   b9c8           	cmpa.l a0,a4
     29c:	|  |  |  |  |  |  +--|--------------------------------------|-- 66f4           	bne.s 292 <main+0x21e>
     29e:	|  |  |  |  |  |  |  |                                      \-> 4210           	clr.b (a0)
     2a0:	|  |  |  |  |  |  |  |                                          3039 00f0 ff60 	move.w f0ff60 <_end+0xefe2bc>,d0
     2a6:	|  |  |  |  |  |  |  |                                          0c40 4eb9      	cmpi.w #20153,d0
     2aa:	|  |  |  |  |  |  |  |     /----------------------------------- 6700 06aa      	beq.w 956 <main+0x8e2>
     2ae:	|  |  |  |  |  |  |  |     |                                    0c40 a00e      	cmpi.w #-24562,d0
     2b2:	|  |  |  |  |  |  |  |     +----------------------------------- 6700 06a2      	beq.w 956 <main+0x8e2>
     2b6:	|  |  |  |  |  |  |  |     |                                    42ad ffd6      	clr.l -42(a5)
     2ba:	|  |  |  |  |  |  |  |     |                                    42ad ffda      	clr.l -38(a5)
     2be:	|  |  |  |  |  |  |  |     |                                    42ad ffde      	clr.l -34(a5)
     2c2:	|  |  |  |  |  |  |  |     |                                    42ad ffe2      	clr.l -30(a5)
     2c6:	|  |  |  |  |  |  |  |     |                                    42ad ffe6      	clr.l -26(a5)
     2ca:	|  |  |  |  |  |  |  |     |                                    42ad ffea      	clr.l -22(a5)
     2ce:	|  |  |  |  |  |  |  |     |                                    42ad ffee      	clr.l -18(a5)
     2d2:	|  |  |  |  |  |  |  |     |                                    42ad fff2      	clr.l -14(a5)
     2d6:	|  |  |  |  |  |  |  |     |                                    42ad fff6      	clr.l -10(a5)
     2da:	|  |  |  |  |  |  |  |     |                                    42ad fffa      	clr.l -6(a5)
     2de:	|  |  |  |  |  |  |  |     |                                    426d fffe      	clr.w -2(a5)
     2e2:	|  |  |  |  |  |  |  |     |                                    263c 0000 1286 	move.l #4742,d3
     2e8:	|  |  |  |  |  |  |  |     |                                    2b43 ffce      	move.l d3,-50(a5)
     2ec:	|  |  |  |  |  |  |  |     |                                    7240           	moveq #64,d1
     2ee:	|  |  |  |  |  |  |  |     |                                    2b41 ffd2      	move.l d1,-46(a5)
     2f2:	|  |  |  |  |  |  |  |     |                                    3b7c 0001 fff6 	move.w #1,-10(a5)
     2f8:	|  |  |  |  |  |  |  |     |                                    3b7c 0020 fffa 	move.w #32,-6(a5)
     2fe:	|  |  |  |  |  |  |  |     |                                    1b7c 0069 ffd6 	move.b #105,-42(a5)
     304:	|  |  |  |  |  |  |  |     |                                    706d           	moveq #109,d0
     306:	|  |  |  |  |  |  |  |     |                                    41ed ffd7      	lea -41(a5),a0
     30a:	|  |  |  |  |  |  |  |     |                                    43f9 0000 2c82 	lea 2c82 <incbin_player_end+0x54>,a1
     310:	|  |  |  |  |  |  |  |     |                                    49ed fff5      	lea -11(a5),a4
     314:	|  |  |  |  |  |  |  |  /--|----------------------------------> 5289           	addq.l #1,a1
     316:	|  |  |  |  |  |  |  |  |  |                                    10c0           	move.b d0,(a0)+
     318:	|  |  |  |  |  |  |  |  |  |                                    1011           	move.b (a1),d0
     31a:	|  |  |  |  |  |  |  |  |  |                                /-- 6704           	beq.s 320 <main+0x2ac>
     31c:	|  |  |  |  |  |  |  |  |  |                                |   b9c8           	cmpa.l a0,a4
     31e:	|  |  |  |  |  |  |  |  +--|--------------------------------|-- 66f4           	bne.s 314 <main+0x2a0>
     320:	|  |  |  |  |  |  |  |  |  |                                \-> 4210           	clr.b (a0)
     322:	|  |  |  |  |  |  |  |  |  |                                    3039 00f0 ff60 	move.w f0ff60 <_end+0xefe2bc>,d0
     328:	|  |  |  |  |  |  |  |  |  |                                    0c40 4eb9      	cmpi.w #20153,d0
     32c:	|  |  |  |  |  |  |  |  |  |     /----------------------------- 6700 04c8      	beq.w 7f6 <main+0x782>
     330:	|  |  |  |  |  |  |  |  |  |     |                              0c40 a00e      	cmpi.w #-24562,d0
     334:	|  |  |  |  |  |  |  |  |  |     +----------------------------- 6700 04c0      	beq.w 7f6 <main+0x782>
     338:	|  |  |  |  |  |  |  |  |  |     |                              4878 0400      	pea 400 <main+0x38c>
     33c:	|  |  |  |  |  |  |  |  |  |     |                              4879 0000 2ce5 	pea 2ce5 <incbin_player_end+0xb7>
     342:	|  |  |  |  |  |  |  |  |  |     |                              2f0b           	move.l a3,-(sp)
     344:	|  |  |  |  |  |  |  |  |  |     |                              49f9 0000 0de2 	lea de2 <debug_register_copperlist.constprop.0>,a4
     34a:	|  |  |  |  |  |  |  |  |  |     |                              4e94           	jsr (a4)
     34c:	|  |  |  |  |  |  |  |  |  |     |                              4878 007c      	pea 7c <main+0x8>
     350:	|  |  |  |  |  |  |  |  |  |     |                              4879 0000 2ced 	pea 2ced <incbin_player_end+0xbf>
     356:	|  |  |  |  |  |  |  |  |  |     |                              4879 0000 2d54 	pea 2d54 <copper2>
     35c:	|  |  |  |  |  |  |  |  |  |     |                              4e94           	jsr (a4)
     35e:	|  |  |  |  |  |  |  |  |  |     |                              36bc 0092      	move.w #146,(a3)
     362:	|  |  |  |  |  |  |  |  |  |     |                              377c 0038 0002 	move.w #56,2(a3)
     368:	|  |  |  |  |  |  |  |  |  |     |                              377c 0094 0004 	move.w #148,4(a3)
     36e:	|  |  |  |  |  |  |  |  |  |     |                              377c 00d0 0006 	move.w #208,6(a3)
     374:	|  |  |  |  |  |  |  |  |  |     |                              377c 008e 0008 	move.w #142,8(a3)
     37a:	|  |  |  |  |  |  |  |  |  |     |                              377c 2c81 000a 	move.w #11393,10(a3)
     380:	|  |  |  |  |  |  |  |  |  |     |                              377c 0090 000c 	move.w #144,12(a3)
     386:	|  |  |  |  |  |  |  |  |  |     |                              377c 2cc1 000e 	move.w #11457,14(a3)
     38c:	|  |  |  |  |  |  |  |  |  |     |                              377c 0100 0010 	move.w #256,16(a3)
     392:	|  |  |  |  |  |  |  |  |  |     |                              377c 5200 0012 	move.w #20992,18(a3)
     398:	|  |  |  |  |  |  |  |  |  |     |                              377c 0102 0014 	move.w #258,20(a3)
     39e:	|  |  |  |  |  |  |  |  |  |     |                              41eb 0016      	lea 22(a3),a0
     3a2:	|  |  |  |  |  |  |  |  |  |     |                              23c8 0001 1c9c 	move.l a0,11c9c <scroll>
     3a8:	|  |  |  |  |  |  |  |  |  |     |                              426b 0016      	clr.w 22(a3)
     3ac:	|  |  |  |  |  |  |  |  |  |     |                              377c 0104 0018 	move.w #260,24(a3)
     3b2:	|  |  |  |  |  |  |  |  |  |     |                              377c 0040 001a 	move.w #64,26(a3)
     3b8:	|  |  |  |  |  |  |  |  |  |     |                              377c 0108 001c 	move.w #264,28(a3)
     3be:	|  |  |  |  |  |  |  |  |  |     |                              426b 001e      	clr.w 30(a3)
     3c2:	|  |  |  |  |  |  |  |  |  |     |                              377c 010a 0020 	move.w #266,32(a3)
     3c8:	|  |  |  |  |  |  |  |  |  |     |                              426b 0022      	clr.w 34(a3)
     3cc:	|  |  |  |  |  |  |  |  |  |     |                              377c 00e0 0024 	move.w #224,36(a3)
     3d2:	|  |  |  |  |  |  |  |  |  |     |                              2002           	move.l d2,d0
     3d4:	|  |  |  |  |  |  |  |  |  |     |                              4240           	clr.w d0
     3d6:	|  |  |  |  |  |  |  |  |  |     |                              4840           	swap d0
     3d8:	|  |  |  |  |  |  |  |  |  |     |                              3740 0026      	move.w d0,38(a3)
     3dc:	|  |  |  |  |  |  |  |  |  |     |                              377c 00e2 0028 	move.w #226,40(a3)
     3e2:	|  |  |  |  |  |  |  |  |  |     |                              3742 002a      	move.w d2,42(a3)
     3e6:	|  |  |  |  |  |  |  |  |  |     |                              203c 0000 6800 	move.l #26624,d0
     3ec:	|  |  |  |  |  |  |  |  |  |     |                              377c 00e4 002c 	move.w #228,44(a3)
     3f2:	|  |  |  |  |  |  |  |  |  |     |                              2200           	move.l d0,d1
     3f4:	|  |  |  |  |  |  |  |  |  |     |                              4241           	clr.w d1
     3f6:	|  |  |  |  |  |  |  |  |  |     |                              4841           	swap d1
     3f8:	|  |  |  |  |  |  |  |  |  |     |                              3741 002e      	move.w d1,46(a3)
     3fc:	|  |  |  |  |  |  |  |  |  |     |                              377c 00e6 0030 	move.w #230,48(a3)
     402:	|  |  |  |  |  |  |  |  |  |     |                              3740 0032      	move.w d0,50(a3)
     406:	|  |  |  |  |  |  |  |  |  |     |                              203c 0000 9000 	move.l #36864,d0
     40c:	|  |  |  |  |  |  |  |  |  |     |                              377c 00e8 0034 	move.w #232,52(a3)
     412:	|  |  |  |  |  |  |  |  |  |     |                              2200           	move.l d0,d1
     414:	|  |  |  |  |  |  |  |  |  |     |                              4241           	clr.w d1
     416:	|  |  |  |  |  |  |  |  |  |     |                              4841           	swap d1
     418:	|  |  |  |  |  |  |  |  |  |     |                              3741 0036      	move.w d1,54(a3)
     41c:	|  |  |  |  |  |  |  |  |  |     |                              377c 00ea 0038 	move.w #234,56(a3)
     422:	|  |  |  |  |  |  |  |  |  |     |                              3740 003a      	move.w d0,58(a3)
     426:	|  |  |  |  |  |  |  |  |  |     |                              203c 0000 b800 	move.l #47104,d0
     42c:	|  |  |  |  |  |  |  |  |  |     |                              377c 00ec 003c 	move.w #236,60(a3)
     432:	|  |  |  |  |  |  |  |  |  |     |                              2200           	move.l d0,d1
     434:	|  |  |  |  |  |  |  |  |  |     |                              4241           	clr.w d1
     436:	|  |  |  |  |  |  |  |  |  |     |                              4841           	swap d1
     438:	|  |  |  |  |  |  |  |  |  |     |                              3741 003e      	move.w d1,62(a3)
     43c:	|  |  |  |  |  |  |  |  |  |     |                              377c 00ee 0040 	move.w #238,64(a3)
     442:	|  |  |  |  |  |  |  |  |  |     |                              3740 0042      	move.w d0,66(a3)
     446:	|  |  |  |  |  |  |  |  |  |     |                              203c 0000 e000 	move.l #57344,d0
     44c:	|  |  |  |  |  |  |  |  |  |     |                              377c 00f0 0044 	move.w #240,68(a3)
     452:	|  |  |  |  |  |  |  |  |  |     |                              2200           	move.l d0,d1
     454:	|  |  |  |  |  |  |  |  |  |     |                              4241           	clr.w d1
     456:	|  |  |  |  |  |  |  |  |  |     |                              4841           	swap d1
     458:	|  |  |  |  |  |  |  |  |  |     |                              3741 0046      	move.w d1,70(a3)
     45c:	|  |  |  |  |  |  |  |  |  |     |                              377c 00f2 0048 	move.w #242,72(a3)
     462:	|  |  |  |  |  |  |  |  |  |     |                              3740 004a      	move.w d0,74(a3)
     466:	|  |  |  |  |  |  |  |  |  |     |                              43eb 004c      	lea 76(a3),a1
     46a:	|  |  |  |  |  |  |  |  |  |     |                              4fef 0018      	lea 24(sp),sp
     46e:	|  |  |  |  |  |  |  |  |  |     |                              41f9 0000 1286 	lea 1286 <incbin_colors_start>,a0
     474:	|  |  |  |  |  |  |  |  |  |     |                              303c 017e      	move.w #382,d0
     478:	|  |  |  |  |  |  |  |  |  |     |                              9043           	sub.w d3,d0
     47a:	|  |  |  |  |  |  |  |  |  |  /--|----------------------------> 3218           	move.w (a0)+,d1
     47c:	|  |  |  |  |  |  |  |  |  |  |  |                              3400           	move.w d0,d2
     47e:	|  |  |  |  |  |  |  |  |  |  |  |                              d448           	add.w a0,d2
     480:	|  |  |  |  |  |  |  |  |  |  |  |                              3282           	move.w d2,(a1)
     482:	|  |  |  |  |  |  |  |  |  |  |  |                              5889           	addq.l #4,a1
     484:	|  |  |  |  |  |  |  |  |  |  |  |                              3341 fffe      	move.w d1,-2(a1)
     488:	|  |  |  |  |  |  |  |  |  |  |  |                              b1fc 0000 12c6 	cmpa.l #4806,a0
     48e:	|  |  |  |  |  |  |  |  |  |  +--|----------------------------- 66ea           	bne.s 47a <main+0x406>
     490:	|  |  |  |  |  |  |  |  |  |  |  |                              377c 008a 00cc 	move.w #138,204(a3)
     496:	|  |  |  |  |  |  |  |  |  |  |  |                              377c 7fff 00ce 	move.w #32767,206(a3)
     49c:	|  |  |  |  |  |  |  |  |  |  |  |                              2079 0001 1ca0 	movea.l 11ca0 <custom>,a0
     4a2:	|  |  |  |  |  |  |  |  |  |  |  |                              214b 0080      	move.l a3,128(a0)
     4a6:	|  |  |  |  |  |  |  |  |  |  |  |                              217c 0000 2d54 	move.l #11604,132(a0)
     4ac:	|  |  |  |  |  |  |  |  |  |  |  |                              0084 
     4ae:	|  |  |  |  |  |  |  |  |  |  |  |                              317c 0040 0096 	move.w #64,150(a0)
     4b4:	|  |  |  |  |  |  |  |  |  |  |  |                              317c 7fff 0088 	move.w #32767,136(a0)
     4ba:	|  |  |  |  |  |  |  |  |  |  |  |                              317c 83c0 0096 	move.w #-31808,150(a0)
     4c0:	|  |  |  |  |  |  |  |  |  |  |  |                              2279 0001 1c8a 	movea.l 11c8a <VBR>,a1
     4c6:	|  |  |  |  |  |  |  |  |  |  |  |                              237c 0000 0c4a 	move.l #3146,108(a1)
     4cc:	|  |  |  |  |  |  |  |  |  |  |  |                              006c 
     4ce:	|  |  |  |  |  |  |  |  |  |  |  |                              317c e020 009a 	move.w #-8160,154(a0)
     4d4:	|  |  |  |  |  |  |  |  |  |  |  |                              317c 0020 009c 	move.w #32,156(a0)
     4da:	|  |  |  |  |  |  |  |  |  |  |  |                              1039 00bf e001 	move.b bfe001 <_end+0xbec35d>,d0
     4e0:	|  |  |  |  |  |  |  |  |  |  |  |                              0800 0006      	btst #6,d0
     4e4:	|  |  |  |  |  |  |  |  |  |  |  |  /-------------------------- 6700 00a4      	beq.w 58a <main+0x516>
     4e8:	|  |  |  |  |  |  |  |  |  |  |  |  |                           243c 0000 2cf5 	move.l #11509,d2
     4ee:	|  |  |  |  |  |  |  |  |  |  |  |  |  /----------------------> 4e92           	jsr (a2)
     4f0:	|  |  |  |  |  |  |  |  |  |  |  |  |  |                        3639 0001 1c9a 	move.w 11c9a <frameCounter>,d3
     4f6:	|  |  |  |  |  |  |  |  |  |  |  |  |  |                    /-> 2039 00df f004 	move.l dff004 <_end+0xded360>,d0
     4fc:	|  |  |  |  |  |  |  |  |  |  |  |  |  |                    |   2b40 ffc2      	move.l d0,-62(a5)
     500:	|  |  |  |  |  |  |  |  |  |  |  |  |  |                    |   202d ffc2      	move.l -62(a5),d0
     504:	|  |  |  |  |  |  |  |  |  |  |  |  |  |                    |   e088           	lsr.l #8,d0
     506:	|  |  |  |  |  |  |  |  |  |  |  |  |  |                    |   0280 0000 01ff 	andi.l #511,d0
     50c:	|  |  |  |  |  |  |  |  |  |  |  |  |  |                    |   7210           	moveq #16,d1
     50e:	|  |  |  |  |  |  |  |  |  |  |  |  |  |                    |   b280           	cmp.l d0,d1
     510:	|  |  |  |  |  |  |  |  |  |  |  |  |  |                    \-- 66e4           	bne.s 4f6 <main+0x482>
     512:	|  |  |  |  |  |  |  |  |  |  |  |  |  |                    /-> 2039 00df f004 	move.l dff004 <_end+0xded360>,d0
     518:	|  |  |  |  |  |  |  |  |  |  |  |  |  |                    |   2b40 ffce      	move.l d0,-50(a5)
     51c:	|  |  |  |  |  |  |  |  |  |  |  |  |  |                    |   202d ffce      	move.l -50(a5),d0
     520:	|  |  |  |  |  |  |  |  |  |  |  |  |  |                    |   e088           	lsr.l #8,d0
     522:	|  |  |  |  |  |  |  |  |  |  |  |  |  |                    |   0280 0000 01ff 	andi.l #511,d0
     528:	|  |  |  |  |  |  |  |  |  |  |  |  |  |                    |   7211           	moveq #17,d1
     52a:	|  |  |  |  |  |  |  |  |  |  |  |  |  |                    |   b280           	cmp.l d0,d1
     52c:	|  |  |  |  |  |  |  |  |  |  |  |  |  |                    \-- 66e4           	bne.s 512 <main+0x49e>
     52e:	|  |  |  |  |  |  |  |  |  |  |  |  |  |                    /-> 2039 00df f004 	move.l dff004 <_end+0xded360>,d0
     534:	|  |  |  |  |  |  |  |  |  |  |  |  |  |                    |   2b40 ffca      	move.l d0,-54(a5)
     538:	|  |  |  |  |  |  |  |  |  |  |  |  |  |                    |   202d ffca      	move.l -54(a5),d0
     53c:	|  |  |  |  |  |  |  |  |  |  |  |  |  |                    |   e088           	lsr.l #8,d0
     53e:	|  |  |  |  |  |  |  |  |  |  |  |  |  |                    |   0280 0000 01ff 	andi.l #511,d0
     544:	|  |  |  |  |  |  |  |  |  |  |  |  |  |                    |   7212           	moveq #18,d1
     546:	|  |  |  |  |  |  |  |  |  |  |  |  |  |                    |   b280           	cmp.l d0,d1
     548:	|  |  |  |  |  |  |  |  |  |  |  |  |  |                    \-- 66e4           	bne.s 52e <main+0x4ba>
     54a:	|  |  |  |  |  |  |  |  |  |  |  |  |  |                    /-> 2039 00df f004 	move.l dff004 <_end+0xded360>,d0
     550:	|  |  |  |  |  |  |  |  |  |  |  |  |  |                    |   2b40 ffc6      	move.l d0,-58(a5)
     554:	|  |  |  |  |  |  |  |  |  |  |  |  |  |                    |   202d ffc6      	move.l -58(a5),d0
     558:	|  |  |  |  |  |  |  |  |  |  |  |  |  |                    |   e088           	lsr.l #8,d0
     55a:	|  |  |  |  |  |  |  |  |  |  |  |  |  |                    |   0280 0000 01ff 	andi.l #511,d0
     560:	|  |  |  |  |  |  |  |  |  |  |  |  |  |                    |   7213           	moveq #19,d1
     562:	|  |  |  |  |  |  |  |  |  |  |  |  |  |                    |   b280           	cmp.l d0,d1
     564:	|  |  |  |  |  |  |  |  |  |  |  |  |  |                    \-- 66e4           	bne.s 54a <main+0x4d6>
     566:	|  |  |  |  |  |  |  |  |  |  |  |  |  |                        3039 00f0 ff60 	move.w f0ff60 <_end+0xefe2bc>,d0
     56c:	|  |  |  |  |  |  |  |  |  |  |  |  |  |                        0c40 4eb9      	cmpi.w #20153,d0
     570:	|  |  |  |  |  |  |  |  |  |  |  |  |  |                 /----- 6700 0110      	beq.w 682 <main+0x60e>
     574:	|  |  |  |  |  |  |  |  |  |  |  |  |  |                 |      0c40 a00e      	cmpi.w #-24562,d0
     578:	|  |  |  |  |  |  |  |  |  |  |  |  |  |                 +----- 6700 0108      	beq.w 682 <main+0x60e>
     57c:	|  |  |  |  |  |  |  |  |  |  |  |  |  |  /--------------|----> 1039 00bf e001 	move.b bfe001 <_end+0xbec35d>,d0
     582:	|  |  |  |  |  |  |  |  |  |  |  |  |  |  |              |      0800 0006      	btst #6,d0
     586:	|  |  |  |  |  |  |  |  |  |  |  |  |  +--|--------------|----- 6600 ff66      	bne.w 4ee <main+0x47a>
     58a:	|  |  |  |  |  |  |  |  |  |  |  |  >--|--|--------------|----> 47f9 0000 12c8 	lea 12c8 <incbin_player_start>,a3
     590:	|  |  |  |  |  |  |  |  |  |  |  |  |  |  |              |      2c7c 00df f000 	movea.l #14675968,a6
     596:	|  |  |  |  |  |  |  |  |  |  |  |  |  |  |              |      48e7 c0c0      	movem.l d0-d1/a0-a1,-(sp)
     59a:	|  |  |  |  |  |  |  |  |  |  |  |  |  |  |              |      4eab 0008      	jsr 8(a3)
     59e:	|  |  |  |  |  |  |  |  |  |  |  |  |  |  |              |      4cdf 0303      	movem.l (sp)+,d0-d1/a0-a1
     5a2:	|  |  |  |  |  |  |  |  |  |  |  |  |  |  |              |      4e92           	jsr (a2)
     5a4:	|  |  |  |  |  |  |  |  |  |  |  |  |  |  |              |      2079 0001 1ca0 	movea.l 11ca0 <custom>,a0
     5aa:	|  |  |  |  |  |  |  |  |  |  |  |  |  |  |              |      3028 0002      	move.w 2(a0),d0
     5ae:	|  |  |  |  |  |  |  |  |  |  |  |  |  |  |              |  /-> 3028 0002      	move.w 2(a0),d0
     5b2:	|  |  |  |  |  |  |  |  |  |  |  |  |  |  |              |  |   0800 000e      	btst #14,d0
     5b6:	|  |  |  |  |  |  |  |  |  |  |  |  |  |  |              |  \-- 66f6           	bne.s 5ae <main+0x53a>
     5b8:	|  |  |  |  |  |  |  |  |  |  |  |  |  |  |              |      317c 7fff 009a 	move.w #32767,154(a0)
     5be:	|  |  |  |  |  |  |  |  |  |  |  |  |  |  |              |      317c 7fff 009c 	move.w #32767,156(a0)
     5c4:	|  |  |  |  |  |  |  |  |  |  |  |  |  |  |              |      317c 7fff 0096 	move.w #32767,150(a0)
     5ca:	|  |  |  |  |  |  |  |  |  |  |  |  |  |  |              |      2279 0001 1c8a 	movea.l 11c8a <VBR>,a1
     5d0:	|  |  |  |  |  |  |  |  |  |  |  |  |  |  |              |      2379 0001 1c86 	move.l 11c86 <SystemIrq>,108(a1)
     5d6:	|  |  |  |  |  |  |  |  |  |  |  |  |  |  |              |      006c 
     5d8:	|  |  |  |  |  |  |  |  |  |  |  |  |  |  |              |      2c79 0001 1c92 	movea.l 11c92 <GfxBase>,a6
     5de:	|  |  |  |  |  |  |  |  |  |  |  |  |  |  |              |      216e 0026 0080 	move.l 38(a6),128(a0)
     5e4:	|  |  |  |  |  |  |  |  |  |  |  |  |  |  |              |      216e 0032 0084 	move.l 50(a6),132(a0)
     5ea:	|  |  |  |  |  |  |  |  |  |  |  |  |  |  |              |      317c 7fff 0088 	move.w #32767,136(a0)
     5f0:	|  |  |  |  |  |  |  |  |  |  |  |  |  |  |              |      3039 0001 1c84 	move.w 11c84 <SystemInts>,d0
     5f6:	|  |  |  |  |  |  |  |  |  |  |  |  |  |  |              |      0040 8000      	ori.w #-32768,d0
     5fa:	|  |  |  |  |  |  |  |  |  |  |  |  |  |  |              |      3140 009a      	move.w d0,154(a0)
     5fe:	|  |  |  |  |  |  |  |  |  |  |  |  |  |  |              |      3039 0001 1c82 	move.w 11c82 <SystemDMA>,d0
     604:	|  |  |  |  |  |  |  |  |  |  |  |  |  |  |              |      0040 8000      	ori.w #-32768,d0
     608:	|  |  |  |  |  |  |  |  |  |  |  |  |  |  |              |      3140 0096      	move.w d0,150(a0)
     60c:	|  |  |  |  |  |  |  |  |  |  |  |  |  |  |              |      3039 0001 1c80 	move.w 11c80 <SystemADKCON>,d0
     612:	|  |  |  |  |  |  |  |  |  |  |  |  |  |  |              |      0040 8000      	ori.w #-32768,d0
     616:	|  |  |  |  |  |  |  |  |  |  |  |  |  |  |              |      3140 009e      	move.w d0,158(a0)
     61a:	|  |  |  |  |  |  |  |  |  |  |  |  |  |  |              |      2279 0001 1c7c 	movea.l 11c7c <ActiView>,a1
     620:	|  |  |  |  |  |  |  |  |  |  |  |  |  |  |              |      4eae ff22      	jsr -222(a6)
     624:	|  |  |  |  |  |  |  |  |  |  |  |  |  |  |              |      2c79 0001 1c92 	movea.l 11c92 <GfxBase>,a6
     62a:	|  |  |  |  |  |  |  |  |  |  |  |  |  |  |              |      4eae fef2      	jsr -270(a6)
     62e:	|  |  |  |  |  |  |  |  |  |  |  |  |  |  |              |      2c79 0001 1c92 	movea.l 11c92 <GfxBase>,a6
     634:	|  |  |  |  |  |  |  |  |  |  |  |  |  |  |              |      4eae fef2      	jsr -270(a6)
     638:	|  |  |  |  |  |  |  |  |  |  |  |  |  |  |              |      2c79 0001 1c92 	movea.l 11c92 <GfxBase>,a6
     63e:	|  |  |  |  |  |  |  |  |  |  |  |  |  |  |              |      4eae ff1c      	jsr -228(a6)
     642:	|  |  |  |  |  |  |  |  |  |  |  |  |  |  |              |      2c79 0001 1c92 	movea.l 11c92 <GfxBase>,a6
     648:	|  |  |  |  |  |  |  |  |  |  |  |  |  |  |              |      4eae fe32      	jsr -462(a6)
     64c:	|  |  |  |  |  |  |  |  |  |  |  |  |  |  |              |      2c79 0001 1c96 	movea.l 11c96 <SysBase>,a6
     652:	|  |  |  |  |  |  |  |  |  |  |  |  |  |  |              |      4eae ff82      	jsr -126(a6)
     656:	|  |  |  |  |  |  |  |  |  |  |  |  |  |  |              |      2c79 0001 1c96 	movea.l 11c96 <SysBase>,a6
     65c:	|  |  |  |  |  |  |  |  |  |  |  |  |  |  |              |      2279 0001 1c8e 	movea.l 11c8e <DOSBase>,a1
     662:	|  |  |  |  |  |  |  |  |  |  |  |  |  |  |              |      4eae fe62      	jsr -414(a6)
     666:	|  |  |  |  |  |  |  |  |  |  |  |  |  |  |              |      2c79 0001 1c96 	movea.l 11c96 <SysBase>,a6
     66c:	|  |  |  |  |  |  |  |  |  |  |  |  |  |  |              |      2279 0001 1c92 	movea.l 11c92 <GfxBase>,a1
     672:	|  |  |  |  |  |  |  |  |  |  |  |  |  |  |              |      4eae fe62      	jsr -414(a6)
     676:	|  |  |  |  |  |  |  |  |  |  |  |  |  |  |              |      7000           	moveq #0,d0
     678:	|  |  |  |  |  |  |  |  |  |  |  |  |  |  |              |      4ced 5c9c ffa0 	movem.l -96(a5),d2-d4/d7/a2-a4/a6
     67e:	|  |  |  |  |  |  |  |  |  |  |  |  |  |  |              |      4e5d           	unlk a5
     680:	|  |  |  |  |  |  |  |  |  |  |  |  |  |  |              |      4e75           	rts
     682:	|  |  |  |  |  |  |  |  |  |  |  |  |  |  |              \----> 42a7           	clr.l -(sp)
     684:	|  |  |  |  |  |  |  |  |  |  |  |  |  |  |                     42a7           	clr.l -(sp)
     686:	|  |  |  |  |  |  |  |  |  |  |  |  |  |  |                     42a7           	clr.l -(sp)
     688:	|  |  |  |  |  |  |  |  |  |  |  |  |  |  |                     42a7           	clr.l -(sp)
     68a:	|  |  |  |  |  |  |  |  |  |  |  |  |  |  |                     4878 0058      	pea 58 <_start+0x58>
     68e:	|  |  |  |  |  |  |  |  |  |  |  |  |  |  |                     267c 00f0 ff60 	movea.l #15794016,a3
     694:	|  |  |  |  |  |  |  |  |  |  |  |  |  |  |                     4e93           	jsr (a3)
     696:	|  |  |  |  |  |  |  |  |  |  |  |  |  |  |                     0243 00ff      	andi.w #255,d3
     69a:	|  |  |  |  |  |  |  |  |  |  |  |  |  |  |                     3803           	move.w d3,d4
     69c:	|  |  |  |  |  |  |  |  |  |  |  |  |  |  |                     0644 0190      	addi.w #400,d4
     6a0:	|  |  |  |  |  |  |  |  |  |  |  |  |  |  |                     4844           	swap d4
     6a2:	|  |  |  |  |  |  |  |  |  |  |  |  |  |  |                     4244           	clr.w d4
     6a4:	|  |  |  |  |  |  |  |  |  |  |  |  |  |  |                     0044 01b8      	ori.w #440,d4
     6a8:	|  |  |  |  |  |  |  |  |  |  |  |  |  |  |                     3003           	move.w d3,d0
     6aa:	|  |  |  |  |  |  |  |  |  |  |  |  |  |  |                     0640 0064      	addi.w #100,d0
     6ae:	|  |  |  |  |  |  |  |  |  |  |  |  |  |  |                     4840           	swap d0
     6b0:	|  |  |  |  |  |  |  |  |  |  |  |  |  |  |                     4240           	clr.w d0
     6b2:	|  |  |  |  |  |  |  |  |  |  |  |  |  |  |                     0040 0190      	ori.w #400,d0
     6b6:	|  |  |  |  |  |  |  |  |  |  |  |  |  |  |                     3213           	move.w (a3),d1
     6b8:	|  |  |  |  |  |  |  |  |  |  |  |  |  |  |                     4fef 0014      	lea 20(sp),sp
     6bc:	|  |  |  |  |  |  |  |  |  |  |  |  |  |  |                     0c41 4eb9      	cmpi.w #20153,d1
     6c0:	|  |  |  |  |  |  |  |  |  |  |  |  |  |  |        /----------- 6600 00f2      	bne.w 7b4 <main+0x740>
     6c4:	|  |  |  |  |  |  |  |  |  |  |  |  |  |  |        |            2f3c 0000 ff00 	move.l #65280,-(sp)
     6ca:	|  |  |  |  |  |  |  |  |  |  |  |  |  |  |        |            2f04           	move.l d4,-(sp)
     6cc:	|  |  |  |  |  |  |  |  |  |  |  |  |  |  |        |            2f00           	move.l d0,-(sp)
     6ce:	|  |  |  |  |  |  |  |  |  |  |  |  |  |  |        |            4878 0002      	pea 2 <_start+0x2>
     6d2:	|  |  |  |  |  |  |  |  |  |  |  |  |  |  |        |            4878 0058      	pea 58 <_start+0x58>
     6d6:	|  |  |  |  |  |  |  |  |  |  |  |  |  |  |        |            267c 00f0 ff60 	movea.l #15794016,a3
     6dc:	|  |  |  |  |  |  |  |  |  |  |  |  |  |  |        |            4e93           	jsr (a3)
     6de:	|  |  |  |  |  |  |  |  |  |  |  |  |  |  |        |            3003           	move.w d3,d0
     6e0:	|  |  |  |  |  |  |  |  |  |  |  |  |  |  |        |            0640 005a      	addi.w #90,d0
     6e4:	|  |  |  |  |  |  |  |  |  |  |  |  |  |  |        |            4840           	swap d0
     6e6:	|  |  |  |  |  |  |  |  |  |  |  |  |  |  |        |            4240           	clr.w d0
     6e8:	|  |  |  |  |  |  |  |  |  |  |  |  |  |  |        |            0040 017c      	ori.w #380,d0
     6ec:	|  |  |  |  |  |  |  |  |  |  |  |  |  |  |        |            3213           	move.w (a3),d1
     6ee:	|  |  |  |  |  |  |  |  |  |  |  |  |  |  |        |            4fef 0014      	lea 20(sp),sp
     6f2:	|  |  |  |  |  |  |  |  |  |  |  |  |  |  |        |            0c41 4eb9      	cmpi.w #20153,d1
     6f6:	|  |  |  |  |  |  |  |  |  |  |  |  |  |  |  /-----|----------- 665e           	bne.s 756 <main+0x6e2>
     6f8:	|  |  |  |  |  |  |  |  |  |  |  |  |  |  |  |  /--|----------> 4878 00ff      	pea ff <main+0x8b>
     6fc:	|  |  |  |  |  |  |  |  |  |  |  |  |  |  |  |  |  |            2f04           	move.l d4,-(sp)
     6fe:	|  |  |  |  |  |  |  |  |  |  |  |  |  |  |  |  |  |            2f00           	move.l d0,-(sp)
     700:	|  |  |  |  |  |  |  |  |  |  |  |  |  |  |  |  |  |            4878 0001      	pea 1 <_start+0x1>
     704:	|  |  |  |  |  |  |  |  |  |  |  |  |  |  |  |  |  |            4878 0058      	pea 58 <_start+0x58>
     708:	|  |  |  |  |  |  |  |  |  |  |  |  |  |  |  |  |  |            267c 00f0 ff60 	movea.l #15794016,a3
     70e:	|  |  |  |  |  |  |  |  |  |  |  |  |  |  |  |  |  |            4e93           	jsr (a3)
     710:	|  |  |  |  |  |  |  |  |  |  |  |  |  |  |  |  |  |            0643 0082      	addi.w #130,d3
     714:	|  |  |  |  |  |  |  |  |  |  |  |  |  |  |  |  |  |            4843           	swap d3
     716:	|  |  |  |  |  |  |  |  |  |  |  |  |  |  |  |  |  |            4243           	clr.w d3
     718:	|  |  |  |  |  |  |  |  |  |  |  |  |  |  |  |  |  |            0043 01a2      	ori.w #418,d3
     71c:	|  |  |  |  |  |  |  |  |  |  |  |  |  |  |  |  |  |            3013           	move.w (a3),d0
     71e:	|  |  |  |  |  |  |  |  |  |  |  |  |  |  |  |  |  |            4fef 0014      	lea 20(sp),sp
     722:	|  |  |  |  |  |  |  |  |  |  |  |  |  |  |  |  |  |            0c40 4eb9      	cmpi.w #20153,d0
     726:	|  |  |  |  |  |  |  |  |  |  |  |  |  |  |  |  |  |     /----- 6666           	bne.s 78e <main+0x71a>
     728:	|  |  |  |  |  |  |  |  |  |  |  |  |  |  |  |  |  |     |  /-> 2f3c 00ff 00ff 	move.l #16711935,-(sp)
     72e:	|  |  |  |  |  |  |  |  |  |  |  |  |  |  |  |  |  |     |  |   2f02           	move.l d2,-(sp)
     730:	|  |  |  |  |  |  |  |  |  |  |  |  |  |  |  |  |  |     |  |   2f03           	move.l d3,-(sp)
     732:	|  |  |  |  |  |  |  |  |  |  |  |  |  |  |  |  |  |     |  |   4878 0003      	pea 3 <_start+0x3>
     736:	|  |  |  |  |  |  |  |  |  |  |  |  |  |  |  |  |  |     |  |   4878 0058      	pea 58 <_start+0x58>
     73a:	|  |  |  |  |  |  |  |  |  |  |  |  |  |  |  |  |  |     |  |   4eb9 00f0 ff60 	jsr f0ff60 <_end+0xefe2bc>
     740:	|  |  |  |  |  |  |  |  |  |  |  |  |  |  |  |  |  |     |  |   4fef 0014      	lea 20(sp),sp
     744:	|  |  |  |  |  |  |  |  |  |  |  |  |  |  |  |  |  |  /--|--|-> 1039 00bf e001 	move.b bfe001 <_end+0xbec35d>,d0
     74a:	|  |  |  |  |  |  |  |  |  |  |  |  |  |  |  |  |  |  |  |  |   0800 0006      	btst #6,d0
     74e:	|  |  |  |  |  |  |  |  |  |  |  |  |  \--|--|--|--|--|--|--|-- 6600 fd9e      	bne.w 4ee <main+0x47a>
     752:	|  |  |  |  |  |  |  |  |  |  |  |  \-----|--|--|--|--|--|--|-- 6000 fe36      	bra.w 58a <main+0x516>
     756:	|  |  |  |  |  |  |  |  |  |  |  |        |  >--|--|--|--|--|-> 0c41 a00e      	cmpi.w #-24562,d1
     75a:	|  |  |  |  |  |  |  |  |  |  |  |        +--|--|--|--|--|--|-- 6600 fe20      	bne.w 57c <main+0x508>
     75e:	|  |  |  |  |  |  |  |  |  |  |  |        |  |  |  |  |  |  |   4878 00ff      	pea ff <main+0x8b>
     762:	|  |  |  |  |  |  |  |  |  |  |  |        |  |  |  |  |  |  |   2f04           	move.l d4,-(sp)
     764:	|  |  |  |  |  |  |  |  |  |  |  |        |  |  |  |  |  |  |   2f00           	move.l d0,-(sp)
     766:	|  |  |  |  |  |  |  |  |  |  |  |        |  |  |  |  |  |  |   4878 0001      	pea 1 <_start+0x1>
     76a:	|  |  |  |  |  |  |  |  |  |  |  |        |  |  |  |  |  |  |   4878 0058      	pea 58 <_start+0x58>
     76e:	|  |  |  |  |  |  |  |  |  |  |  |        |  |  |  |  |  |  |   267c 00f0 ff60 	movea.l #15794016,a3
     774:	|  |  |  |  |  |  |  |  |  |  |  |        |  |  |  |  |  |  |   4e93           	jsr (a3)
     776:	|  |  |  |  |  |  |  |  |  |  |  |        |  |  |  |  |  |  |   0643 0082      	addi.w #130,d3
     77a:	|  |  |  |  |  |  |  |  |  |  |  |        |  |  |  |  |  |  |   4843           	swap d3
     77c:	|  |  |  |  |  |  |  |  |  |  |  |        |  |  |  |  |  |  |   4243           	clr.w d3
     77e:	|  |  |  |  |  |  |  |  |  |  |  |        |  |  |  |  |  |  |   0043 01a2      	ori.w #418,d3
     782:	|  |  |  |  |  |  |  |  |  |  |  |        |  |  |  |  |  |  |   3013           	move.w (a3),d0
     784:	|  |  |  |  |  |  |  |  |  |  |  |        |  |  |  |  |  |  |   4fef 0014      	lea 20(sp),sp
     788:	|  |  |  |  |  |  |  |  |  |  |  |        |  |  |  |  |  |  |   0c40 4eb9      	cmpi.w #20153,d0
     78c:	|  |  |  |  |  |  |  |  |  |  |  |        |  |  |  |  |  |  \-- 679a           	beq.s 728 <main+0x6b4>
     78e:	|  |  |  |  |  |  |  |  |  |  |  |        |  |  |  |  |  \----> 0c40 a00e      	cmpi.w #-24562,d0
     792:	|  |  |  |  |  |  |  |  |  |  |  |        +--|--|--|--|-------- 6600 fde8      	bne.w 57c <main+0x508>
     796:	|  |  |  |  |  |  |  |  |  |  |  |        |  |  |  |  |         2f3c 00ff 00ff 	move.l #16711935,-(sp)
     79c:	|  |  |  |  |  |  |  |  |  |  |  |        |  |  |  |  |         2f02           	move.l d2,-(sp)
     79e:	|  |  |  |  |  |  |  |  |  |  |  |        |  |  |  |  |         2f03           	move.l d3,-(sp)
     7a0:	|  |  |  |  |  |  |  |  |  |  |  |        |  |  |  |  |         4878 0003      	pea 3 <_start+0x3>
     7a4:	|  |  |  |  |  |  |  |  |  |  |  |        |  |  |  |  |         4878 0058      	pea 58 <_start+0x58>
     7a8:	|  |  |  |  |  |  |  |  |  |  |  |        |  |  |  |  |         4eb9 00f0 ff60 	jsr f0ff60 <_end+0xefe2bc>
     7ae:	|  |  |  |  |  |  |  |  |  |  |  |        |  |  |  |  |         4fef 0014      	lea 20(sp),sp
     7b2:	|  |  |  |  |  |  |  |  |  |  |  |        |  |  |  |  \-------- 6090           	bra.s 744 <main+0x6d0>
     7b4:	|  |  |  |  |  |  |  |  |  |  |  |        |  |  |  \----------> 0c41 a00e      	cmpi.w #-24562,d1
     7b8:	|  |  |  |  |  |  |  |  |  |  |  |        \--|--|-------------- 6600 fdc2      	bne.w 57c <main+0x508>
     7bc:	|  |  |  |  |  |  |  |  |  |  |  |           |  |               2f3c 0000 ff00 	move.l #65280,-(sp)
     7c2:	|  |  |  |  |  |  |  |  |  |  |  |           |  |               2f04           	move.l d4,-(sp)
     7c4:	|  |  |  |  |  |  |  |  |  |  |  |           |  |               2f00           	move.l d0,-(sp)
     7c6:	|  |  |  |  |  |  |  |  |  |  |  |           |  |               4878 0002      	pea 2 <_start+0x2>
     7ca:	|  |  |  |  |  |  |  |  |  |  |  |           |  |               4878 0058      	pea 58 <_start+0x58>
     7ce:	|  |  |  |  |  |  |  |  |  |  |  |           |  |               267c 00f0 ff60 	movea.l #15794016,a3
     7d4:	|  |  |  |  |  |  |  |  |  |  |  |           |  |               4e93           	jsr (a3)
     7d6:	|  |  |  |  |  |  |  |  |  |  |  |           |  |               3003           	move.w d3,d0
     7d8:	|  |  |  |  |  |  |  |  |  |  |  |           |  |               0640 005a      	addi.w #90,d0
     7dc:	|  |  |  |  |  |  |  |  |  |  |  |           |  |               4840           	swap d0
     7de:	|  |  |  |  |  |  |  |  |  |  |  |           |  |               4240           	clr.w d0
     7e0:	|  |  |  |  |  |  |  |  |  |  |  |           |  |               0040 017c      	ori.w #380,d0
     7e4:	|  |  |  |  |  |  |  |  |  |  |  |           |  |               3213           	move.w (a3),d1
     7e6:	|  |  |  |  |  |  |  |  |  |  |  |           |  |               4fef 0014      	lea 20(sp),sp
     7ea:	|  |  |  |  |  |  |  |  |  |  |  |           |  |               0c41 4eb9      	cmpi.w #20153,d1
     7ee:	|  |  |  |  |  |  |  |  |  |  |  |           |  \-------------- 6700 ff08      	beq.w 6f8 <main+0x684>
     7f2:	|  |  |  |  |  |  |  |  |  |  |  |           \----------------- 6000 ff62      	bra.w 756 <main+0x6e2>
     7f6:	|  |  |  |  |  |  |  |  |  |  |  \----------------------------> 42a7           	clr.l -(sp)
     7f8:	|  |  |  |  |  |  |  |  |  |  |                                 42a7           	clr.l -(sp)
     7fa:	|  |  |  |  |  |  |  |  |  |  |                                 486d ffce      	pea -50(a5)
     7fe:	|  |  |  |  |  |  |  |  |  |  |                                 4878 0004      	pea 4 <_start+0x4>
     802:	|  |  |  |  |  |  |  |  |  |  |                                 4878 0058      	pea 58 <_start+0x58>
     806:	|  |  |  |  |  |  |  |  |  |  |                                 4eb9 00f0 ff60 	jsr f0ff60 <_end+0xefe2bc>
     80c:	|  |  |  |  |  |  |  |  |  |  |                                 4fef 0014      	lea 20(sp),sp
     810:	|  |  |  |  |  |  |  |  |  |  |                                 4878 0400      	pea 400 <main+0x38c>
     814:	|  |  |  |  |  |  |  |  |  |  |                                 4879 0000 2ce5 	pea 2ce5 <incbin_player_end+0xb7>
     81a:	|  |  |  |  |  |  |  |  |  |  |                                 2f0b           	move.l a3,-(sp)
     81c:	|  |  |  |  |  |  |  |  |  |  |                                 49f9 0000 0de2 	lea de2 <debug_register_copperlist.constprop.0>,a4
     822:	|  |  |  |  |  |  |  |  |  |  |                                 4e94           	jsr (a4)
     824:	|  |  |  |  |  |  |  |  |  |  |                                 4878 007c      	pea 7c <main+0x8>
     828:	|  |  |  |  |  |  |  |  |  |  |                                 4879 0000 2ced 	pea 2ced <incbin_player_end+0xbf>
     82e:	|  |  |  |  |  |  |  |  |  |  |                                 4879 0000 2d54 	pea 2d54 <copper2>
     834:	|  |  |  |  |  |  |  |  |  |  |                                 4e94           	jsr (a4)
     836:	|  |  |  |  |  |  |  |  |  |  |                                 36bc 0092      	move.w #146,(a3)
     83a:	|  |  |  |  |  |  |  |  |  |  |                                 377c 0038 0002 	move.w #56,2(a3)
     840:	|  |  |  |  |  |  |  |  |  |  |                                 377c 0094 0004 	move.w #148,4(a3)
     846:	|  |  |  |  |  |  |  |  |  |  |                                 377c 00d0 0006 	move.w #208,6(a3)
     84c:	|  |  |  |  |  |  |  |  |  |  |                                 377c 008e 0008 	move.w #142,8(a3)
     852:	|  |  |  |  |  |  |  |  |  |  |                                 377c 2c81 000a 	move.w #11393,10(a3)
     858:	|  |  |  |  |  |  |  |  |  |  |                                 377c 0090 000c 	move.w #144,12(a3)
     85e:	|  |  |  |  |  |  |  |  |  |  |                                 377c 2cc1 000e 	move.w #11457,14(a3)
     864:	|  |  |  |  |  |  |  |  |  |  |                                 377c 0100 0010 	move.w #256,16(a3)
     86a:	|  |  |  |  |  |  |  |  |  |  |                                 377c 5200 0012 	move.w #20992,18(a3)
     870:	|  |  |  |  |  |  |  |  |  |  |                                 377c 0102 0014 	move.w #258,20(a3)
     876:	|  |  |  |  |  |  |  |  |  |  |                                 41eb 0016      	lea 22(a3),a0
     87a:	|  |  |  |  |  |  |  |  |  |  |                                 23c8 0001 1c9c 	move.l a0,11c9c <scroll>
     880:	|  |  |  |  |  |  |  |  |  |  |                                 426b 0016      	clr.w 22(a3)
     884:	|  |  |  |  |  |  |  |  |  |  |                                 377c 0104 0018 	move.w #260,24(a3)
     88a:	|  |  |  |  |  |  |  |  |  |  |                                 377c 0040 001a 	move.w #64,26(a3)
     890:	|  |  |  |  |  |  |  |  |  |  |                                 377c 0108 001c 	move.w #264,28(a3)
     896:	|  |  |  |  |  |  |  |  |  |  |                                 426b 001e      	clr.w 30(a3)
     89a:	|  |  |  |  |  |  |  |  |  |  |                                 377c 010a 0020 	move.w #266,32(a3)
     8a0:	|  |  |  |  |  |  |  |  |  |  |                                 426b 0022      	clr.w 34(a3)
     8a4:	|  |  |  |  |  |  |  |  |  |  |                                 377c 00e0 0024 	move.w #224,36(a3)
     8aa:	|  |  |  |  |  |  |  |  |  |  |                                 2002           	move.l d2,d0
     8ac:	|  |  |  |  |  |  |  |  |  |  |                                 4240           	clr.w d0
     8ae:	|  |  |  |  |  |  |  |  |  |  |                                 4840           	swap d0
     8b0:	|  |  |  |  |  |  |  |  |  |  |                                 3740 0026      	move.w d0,38(a3)
     8b4:	|  |  |  |  |  |  |  |  |  |  |                                 377c 00e2 0028 	move.w #226,40(a3)
     8ba:	|  |  |  |  |  |  |  |  |  |  |                                 3742 002a      	move.w d2,42(a3)
     8be:	|  |  |  |  |  |  |  |  |  |  |                                 203c 0000 6800 	move.l #26624,d0
     8c4:	|  |  |  |  |  |  |  |  |  |  |                                 377c 00e4 002c 	move.w #228,44(a3)
     8ca:	|  |  |  |  |  |  |  |  |  |  |                                 2200           	move.l d0,d1
     8cc:	|  |  |  |  |  |  |  |  |  |  |                                 4241           	clr.w d1
     8ce:	|  |  |  |  |  |  |  |  |  |  |                                 4841           	swap d1
     8d0:	|  |  |  |  |  |  |  |  |  |  |                                 3741 002e      	move.w d1,46(a3)
     8d4:	|  |  |  |  |  |  |  |  |  |  |                                 377c 00e6 0030 	move.w #230,48(a3)
     8da:	|  |  |  |  |  |  |  |  |  |  |                                 3740 0032      	move.w d0,50(a3)
     8de:	|  |  |  |  |  |  |  |  |  |  |                                 203c 0000 9000 	move.l #36864,d0
     8e4:	|  |  |  |  |  |  |  |  |  |  |                                 377c 00e8 0034 	move.w #232,52(a3)
     8ea:	|  |  |  |  |  |  |  |  |  |  |                                 2200           	move.l d0,d1
     8ec:	|  |  |  |  |  |  |  |  |  |  |                                 4241           	clr.w d1
     8ee:	|  |  |  |  |  |  |  |  |  |  |                                 4841           	swap d1
     8f0:	|  |  |  |  |  |  |  |  |  |  |                                 3741 0036      	move.w d1,54(a3)
     8f4:	|  |  |  |  |  |  |  |  |  |  |                                 377c 00ea 0038 	move.w #234,56(a3)
     8fa:	|  |  |  |  |  |  |  |  |  |  |                                 3740 003a      	move.w d0,58(a3)
     8fe:	|  |  |  |  |  |  |  |  |  |  |                                 203c 0000 b800 	move.l #47104,d0
     904:	|  |  |  |  |  |  |  |  |  |  |                                 377c 00ec 003c 	move.w #236,60(a3)
     90a:	|  |  |  |  |  |  |  |  |  |  |                                 2200           	move.l d0,d1
     90c:	|  |  |  |  |  |  |  |  |  |  |                                 4241           	clr.w d1
     90e:	|  |  |  |  |  |  |  |  |  |  |                                 4841           	swap d1
     910:	|  |  |  |  |  |  |  |  |  |  |                                 3741 003e      	move.w d1,62(a3)
     914:	|  |  |  |  |  |  |  |  |  |  |                                 377c 00ee 0040 	move.w #238,64(a3)
     91a:	|  |  |  |  |  |  |  |  |  |  |                                 3740 0042      	move.w d0,66(a3)
     91e:	|  |  |  |  |  |  |  |  |  |  |                                 203c 0000 e000 	move.l #57344,d0
     924:	|  |  |  |  |  |  |  |  |  |  |                                 377c 00f0 0044 	move.w #240,68(a3)
     92a:	|  |  |  |  |  |  |  |  |  |  |                                 2200           	move.l d0,d1
     92c:	|  |  |  |  |  |  |  |  |  |  |                                 4241           	clr.w d1
     92e:	|  |  |  |  |  |  |  |  |  |  |                                 4841           	swap d1
     930:	|  |  |  |  |  |  |  |  |  |  |                                 3741 0046      	move.w d1,70(a3)
     934:	|  |  |  |  |  |  |  |  |  |  |                                 377c 00f2 0048 	move.w #242,72(a3)
     93a:	|  |  |  |  |  |  |  |  |  |  |                                 3740 004a      	move.w d0,74(a3)
     93e:	|  |  |  |  |  |  |  |  |  |  |                                 43eb 004c      	lea 76(a3),a1
     942:	|  |  |  |  |  |  |  |  |  |  |                                 4fef 0018      	lea 24(sp),sp
     946:	|  |  |  |  |  |  |  |  |  |  |                                 41f9 0000 1286 	lea 1286 <incbin_colors_start>,a0
     94c:	|  |  |  |  |  |  |  |  |  |  |                                 303c 017e      	move.w #382,d0
     950:	|  |  |  |  |  |  |  |  |  |  |                                 9043           	sub.w d3,d0
     952:	|  |  |  |  |  |  |  |  |  |  \-------------------------------- 6000 fb26      	bra.w 47a <main+0x406>
     956:	|  |  |  |  |  |  |  |  |  \----------------------------------> 42a7           	clr.l -(sp)
     958:	|  |  |  |  |  |  |  |  |                                       42a7           	clr.l -(sp)
     95a:	|  |  |  |  |  |  |  |  |                                       486d ffce      	pea -50(a5)
     95e:	|  |  |  |  |  |  |  |  |                                       4878 0004      	pea 4 <_start+0x4>
     962:	|  |  |  |  |  |  |  |  |                                       4878 0058      	pea 58 <_start+0x58>
     966:	|  |  |  |  |  |  |  |  |                                       4eb9 00f0 ff60 	jsr f0ff60 <_end+0xefe2bc>
     96c:	|  |  |  |  |  |  |  |  |                                       4fef 0014      	lea 20(sp),sp
     970:	|  |  |  |  |  |  |  |  |                                       42ad ffd6      	clr.l -42(a5)
     974:	|  |  |  |  |  |  |  |  |                                       42ad ffda      	clr.l -38(a5)
     978:	|  |  |  |  |  |  |  |  |                                       42ad ffde      	clr.l -34(a5)
     97c:	|  |  |  |  |  |  |  |  |                                       42ad ffe2      	clr.l -30(a5)
     980:	|  |  |  |  |  |  |  |  |                                       42ad ffe6      	clr.l -26(a5)
     984:	|  |  |  |  |  |  |  |  |                                       42ad ffea      	clr.l -22(a5)
     988:	|  |  |  |  |  |  |  |  |                                       42ad ffee      	clr.l -18(a5)
     98c:	|  |  |  |  |  |  |  |  |                                       42ad fff2      	clr.l -14(a5)
     990:	|  |  |  |  |  |  |  |  |                                       42ad fff6      	clr.l -10(a5)
     994:	|  |  |  |  |  |  |  |  |                                       42ad fffa      	clr.l -6(a5)
     998:	|  |  |  |  |  |  |  |  |                                       426d fffe      	clr.w -2(a5)
     99c:	|  |  |  |  |  |  |  |  |                                       263c 0000 1286 	move.l #4742,d3
     9a2:	|  |  |  |  |  |  |  |  |                                       2b43 ffce      	move.l d3,-50(a5)
     9a6:	|  |  |  |  |  |  |  |  |                                       7240           	moveq #64,d1
     9a8:	|  |  |  |  |  |  |  |  |                                       2b41 ffd2      	move.l d1,-46(a5)
     9ac:	|  |  |  |  |  |  |  |  |                                       3b7c 0001 fff6 	move.w #1,-10(a5)
     9b2:	|  |  |  |  |  |  |  |  |                                       3b7c 0020 fffa 	move.w #32,-6(a5)
     9b8:	|  |  |  |  |  |  |  |  |                                       1b7c 0069 ffd6 	move.b #105,-42(a5)
     9be:	|  |  |  |  |  |  |  |  |                                       706d           	moveq #109,d0
     9c0:	|  |  |  |  |  |  |  |  |                                       41ed ffd7      	lea -41(a5),a0
     9c4:	|  |  |  |  |  |  |  |  |                                       43f9 0000 2c82 	lea 2c82 <incbin_player_end+0x54>,a1
     9ca:	|  |  |  |  |  |  |  |  |                                       49ed fff5      	lea -11(a5),a4
     9ce:	|  |  |  |  |  |  |  |  \-------------------------------------- 6000 f944      	bra.w 314 <main+0x2a0>
     9d2:	|  |  |  >--|--|--|--|----------------------------------------> 4879 0000 2cd4 	pea 2cd4 <incbin_player_end+0xa6>
     9d8:	|  |  |  |  |  |  |  |                                          4eb9 0000 0cba 	jsr cba <KPrintF>
     9de:	|  |  |  |  |  |  |  |                                          588f           	addq.l #4,sp
     9e0:	|  |  |  |  |  |  |  |                                          42a7           	clr.l -(sp)
     9e2:	|  |  |  |  |  |  |  |                                          4e94           	jsr (a4)
     9e4:	|  |  |  |  |  |  |  |                                          2c79 0001 1c92 	movea.l 11c92 <GfxBase>,a6
     9ea:	|  |  |  |  |  |  |  |                                          23ee 0022 0001 	move.l 34(a6),11c7c <ActiView>
     9f0:	|  |  |  |  |  |  |  |                                          1c7c 
     9f2:	|  |  |  |  |  |  |  |                                          4eae fe38      	jsr -456(a6)
     9f6:	|  |  |  |  |  |  |  |                                          2c79 0001 1c92 	movea.l 11c92 <GfxBase>,a6
     9fc:	|  |  |  |  |  |  |  |                                          4eae ff1c      	jsr -228(a6)
     a00:	|  |  |  |  |  |  |  |                                          2c79 0001 1c96 	movea.l 11c96 <SysBase>,a6
     a06:	|  |  |  |  |  |  |  |                                          4eae ff88      	jsr -120(a6)
     a0a:	|  |  |  |  |  |  |  |                                          2079 0001 1ca0 	movea.l 11ca0 <custom>,a0
     a10:	|  |  |  |  |  |  |  |                                          3028 0010      	move.w 16(a0),d0
     a14:	|  |  |  |  |  |  |  |                                          33c0 0001 1c80 	move.w d0,11c80 <SystemADKCON>
     a1a:	|  |  |  |  |  |  |  |                                          3028 001c      	move.w 28(a0),d0
     a1e:	|  |  |  |  |  |  |  |                                          33c0 0001 1c84 	move.w d0,11c84 <SystemInts>
     a24:	|  |  |  |  |  |  |  |                                          3028 0002      	move.w 2(a0),d0
     a28:	|  |  |  |  |  |  |  |                                          33c0 0001 1c82 	move.w d0,11c82 <SystemDMA>
     a2e:	|  |  |  |  |  |  |  |                                          317c 7fff 009a 	move.w #32767,154(a0)
     a34:	|  |  |  |  |  |  |  |                                          317c 7fff 009c 	move.w #32767,156(a0)
     a3a:	|  |  |  |  |  |  |  |                                          45f9 0000 0b88 	lea b88 <WaitVbl>,a2
     a40:	|  |  |  |  |  |  |  |                                          4e92           	jsr (a2)
     a42:	|  |  |  |  |  |  |  |                                          4e92           	jsr (a2)
     a44:	|  |  |  |  |  |  |  |                                          2079 0001 1ca0 	movea.l 11ca0 <custom>,a0
     a4a:	|  |  |  |  |  |  |  |                                          317c 7fff 0096 	move.w #32767,150(a0)
     a50:	|  |  |  |  |  |  |  |                                          588f           	addq.l #4,sp
     a52:	|  |  |  |  |  |  |  |                                          7200           	moveq #0,d1
     a54:	|  |  |  |  |  |  |  \----------------------------------------- 6000 f744      	bra.w 19a <main+0x126>
     a58:	>--|--|--|--|--|--|-------------------------------------------> 9dce           	suba.l a6,a6
     a5a:	|  |  |  |  |  |  |                                             7200           	moveq #0,d1
     a5c:	|  |  |  |  |  |  |                                             4eae ff70      	jsr -144(a6)
     a60:	|  |  |  |  |  |  |                                             4879 0000 2ca8 	pea 2ca8 <incbin_player_end+0x7a>
     a66:	|  |  |  |  |  |  |                                             4eb9 0000 0cba 	jsr cba <KPrintF>
     a6c:	|  |  |  |  |  |  |                                             2c79 0001 1c8e 	movea.l 11c8e <DOSBase>,a6
     a72:	|  |  |  |  |  |  |                                             4eae ffc4      	jsr -60(a6)
     a76:	|  |  |  |  |  |  |                                             2c79 0001 1c8e 	movea.l 11c8e <DOSBase>,a6
     a7c:	|  |  |  |  |  |  |                                             2200           	move.l d0,d1
     a7e:	|  |  |  |  |  |  |                                             243c 0000 2cc4 	move.l #11460,d2
     a84:	|  |  |  |  |  |  |                                             760f           	moveq #15,d3
     a86:	|  |  |  |  |  |  |                                             4eae ffd0      	jsr -48(a6)
     a8a:	|  |  |  |  |  |  |                                             2c79 0001 1c8e 	movea.l 11c8e <DOSBase>,a6
     a90:	|  |  |  |  |  |  |                                             7232           	moveq #50,d1
     a92:	|  |  |  |  |  |  |                                             4eae ff3a      	jsr -198(a6)
     a96:	|  |  |  |  |  |  |                                             4878 0001      	pea 1 <_start+0x1>
     a9a:	|  |  |  |  |  |  |                                             49f9 0000 0d2c 	lea d2c <warpmode>,a4
     aa0:	|  |  |  |  |  |  |                                             4e94           	jsr (a4)
     aa2:	|  |  |  |  |  |  |                                             41f9 0001 0802 	lea 10802 <incbin_module_start>,a0
     aa8:	|  |  |  |  |  |  |                                             93c9           	suba.l a1,a1
     aaa:	|  |  |  |  |  |  |                                             95ca           	suba.l a2,a2
     aac:	|  |  |  |  |  |  |                                             47f9 0000 12c8 	lea 12c8 <incbin_player_start>,a3
     ab2:	|  |  |  |  |  |  |                                             48e7 7f0e      	movem.l d1-d7/a4-a6,-(sp)
     ab6:	|  |  |  |  |  |  |                                             4e93           	jsr (a3)
     ab8:	|  |  |  |  |  |  |                                             4cdf 70fe      	movem.l (sp)+,d1-d7/a4-a6
     abc:	|  |  |  |  |  |  |                                             508f           	addq.l #8,sp
     abe:	|  |  |  |  |  |  |                                             4a80           	tst.l d0
     ac0:	|  |  |  |  \--|--|-------------------------------------------- 6700 f664      	beq.w 126 <main+0xb2>
     ac4:	|  |  |  \-----|--|-------------------------------------------- 6000 ff0c      	bra.w 9d2 <main+0x95e>
     ac8:	|  |  \--------|--|-------------------------------------------> 2c79 0001 1c8e 	movea.l 11c8e <DOSBase>,a6
     ace:	|  |           |  |                                             7200           	moveq #0,d1
     ad0:	|  |           |  |                                             4eae ff70      	jsr -144(a6)
     ad4:	|  |           |  |                                             2c79 0001 1c96 	movea.l 11c96 <SysBase>,a6
     ada:	|  |           |  |                                             43f9 0000 2c9c 	lea 2c9c <incbin_player_end+0x6e>,a1
     ae0:	|  |           |  |                                             7000           	moveq #0,d0
     ae2:	|  |           |  |                                             4eae fdd8      	jsr -552(a6)
     ae6:	|  |           |  |                                             23c0 0001 1c8e 	move.l d0,11c8e <DOSBase>
     aec:	|  \-----------|--|-------------------------------------------- 6600 f5d4      	bne.w c2 <main+0x4e>
     af0:	\--------------|--|-------------------------------------------- 6000 ff66      	bra.w a58 <main+0x9e4>
     af4:	               \--|-------------------------------------------> 7000           	moveq #0,d0
     af6:	                  |                                             23c0 0001 1c8a 	move.l d0,11c8a <VBR>
     afc:	                  |                                             2079 0001 1c8a 	movea.l 11c8a <VBR>,a0
     b02:	                  |                                             2028 006c      	move.l 108(a0),d0
     b06:	                  |                                             23c0 0001 1c86 	move.l d0,11c86 <SystemIrq>
     b0c:	                  |                                             4e92           	jsr (a2)
     b0e:	                  |                                             2c79 0001 1c96 	movea.l 11c96 <SysBase>,a6
     b14:	                  |                                             203c 0000 0400 	move.l #1024,d0
     b1a:	                  |                                             7202           	moveq #2,d1
     b1c:	                  |                                             4eae ff3a      	jsr -198(a6)
     b20:	                  |                                             2640           	movea.l d0,a3
     b22:	                  |                                             42ad ffd6      	clr.l -42(a5)
     b26:	                  |                                             42ad ffda      	clr.l -38(a5)
     b2a:	                  |                                             42ad ffde      	clr.l -34(a5)
     b2e:	                  |                                             42ad ffe2      	clr.l -30(a5)
     b32:	                  |                                             42ad ffe6      	clr.l -26(a5)
     b36:	                  |                                             42ad ffea      	clr.l -22(a5)
     b3a:	                  |                                             42ad ffee      	clr.l -18(a5)
     b3e:	                  |                                             42ad fff2      	clr.l -14(a5)
     b42:	                  |                                             426d fff6      	clr.w -10(a5)
     b46:	                  |                                             243c 0000 4000 	move.l #16384,d2
     b4c:	                  |                                             2b42 ffce      	move.l d2,-50(a5)
     b50:	                  |                                             2b7c 0000 c800 	move.l #51200,-46(a5)
     b56:	                  |                                             ffd2 
     b58:	                  |                                             426d fff8      	clr.w -8(a5)
     b5c:	                  |                                             3b7c 0140 fffa 	move.w #320,-6(a5)
     b62:	                  |                                             3b7c 0100 fffc 	move.w #256,-4(a5)
     b68:	                  |                                             3b7c 0005 fffe 	move.w #5,-2(a5)
     b6e:	                  |                                             1b7c 0069 ffd6 	move.b #105,-42(a5)
     b74:	                  |                                             706d           	moveq #109,d0
     b76:	                  |                                             41ed ffd7      	lea -41(a5),a0
     b7a:	                  |                                             43f9 0000 2c78 	lea 2c78 <incbin_player_end+0x4a>,a1
     b80:	                  |                                             49ed fff5      	lea -11(a5),a4
     b84:	                  \-------------------------------------------- 6000 f70c      	bra.w 292 <main+0x21e>

00000b88 <WaitVbl>:
     b88:	             518f           	subq.l #8,sp
     b8a:	             3039 00f0 ff60 	move.w f0ff60 <_end+0xefe2bc>,d0
     b90:	             0c40 4eb9      	cmpi.w #20153,d0
     b94:	      /----- 6778           	beq.s c0e <WaitVbl+0x86>
     b96:	      |      0c40 a00e      	cmpi.w #-24562,d0
     b9a:	      +----- 6772           	beq.s c0e <WaitVbl+0x86>
     b9c:	/-----|----> 2039 00df f004 	move.l dff004 <_end+0xded360>,d0
     ba2:	|     |      2e80           	move.l d0,(sp)
     ba4:	|     |      2017           	move.l (sp),d0
     ba6:	|     |      0280 0001 ff00 	andi.l #130816,d0
     bac:	|     |      2e80           	move.l d0,(sp)
     bae:	|     |      2017           	move.l (sp),d0
     bb0:	|     |      0c80 0001 3700 	cmpi.l #79616,d0
     bb6:	+-----|----- 67e4           	beq.s b9c <WaitVbl+0x14>
     bb8:	|  /--|----> 2039 00df f004 	move.l dff004 <_end+0xded360>,d0
     bbe:	|  |  |      2f40 0004      	move.l d0,4(sp)
     bc2:	|  |  |      202f 0004      	move.l 4(sp),d0
     bc6:	|  |  |      0280 0001 ff00 	andi.l #130816,d0
     bcc:	|  |  |      2f40 0004      	move.l d0,4(sp)
     bd0:	|  |  |      202f 0004      	move.l 4(sp),d0
     bd4:	|  |  |      0c80 0001 3700 	cmpi.l #79616,d0
     bda:	|  +--|----- 66dc           	bne.s bb8 <WaitVbl+0x30>
     bdc:	|  |  |      3039 00f0 ff60 	move.w f0ff60 <_end+0xefe2bc>,d0
     be2:	|  |  |      0c40 4eb9      	cmpi.w #20153,d0
     be6:	|  |  |  /-- 670a           	beq.s bf2 <WaitVbl+0x6a>
     be8:	|  |  |  |   0c40 a00e      	cmpi.w #-24562,d0
     bec:	|  |  |  +-- 6704           	beq.s bf2 <WaitVbl+0x6a>
     bee:	|  |  |  |   508f           	addq.l #8,sp
     bf0:	|  |  |  |   4e75           	rts
     bf2:	|  |  |  \-> 42a7           	clr.l -(sp)
     bf4:	|  |  |      42a7           	clr.l -(sp)
     bf6:	|  |  |      42a7           	clr.l -(sp)
     bf8:	|  |  |      4878 0005      	pea 5 <_start+0x5>
     bfc:	|  |  |      4878 0058      	pea 58 <_start+0x58>
     c00:	|  |  |      4eb9 00f0 ff60 	jsr f0ff60 <_end+0xefe2bc>
     c06:	|  |  |      4fef 0014      	lea 20(sp),sp
     c0a:	|  |  |      508f           	addq.l #8,sp
     c0c:	|  |  |      4e75           	rts
     c0e:	|  |  \----> 42a7           	clr.l -(sp)
     c10:	|  |         42a7           	clr.l -(sp)
     c12:	|  |         4878 0001      	pea 1 <_start+0x1>
     c16:	|  |         4878 0005      	pea 5 <_start+0x5>
     c1a:	|  |         4878 0058      	pea 58 <_start+0x58>
     c1e:	|  |         4eb9 00f0 ff60 	jsr f0ff60 <_end+0xefe2bc>
     c24:	|  |         4fef 0014      	lea 20(sp),sp
     c28:	|  |         2039 00df f004 	move.l dff004 <_end+0xded360>,d0
     c2e:	|  |         2e80           	move.l d0,(sp)
     c30:	|  |         2017           	move.l (sp),d0
     c32:	|  |         0280 0001 ff00 	andi.l #130816,d0
     c38:	|  |         2e80           	move.l d0,(sp)
     c3a:	|  |         2017           	move.l (sp),d0
     c3c:	|  |         0c80 0001 3700 	cmpi.l #79616,d0
     c42:	\--|-------- 6700 ff58      	beq.w b9c <WaitVbl+0x14>
     c46:	   \-------- 6000 ff70      	bra.w bb8 <WaitVbl+0x30>

00000c4a <interruptHandler>:
     c4a:	    48e7 c0d2      	movem.l d0-d1/a0-a1/a3/a6,-(sp)
     c4e:	    2079 0001 1ca0 	movea.l 11ca0 <custom>,a0
     c54:	    317c 0020 009c 	move.w #32,156(a0)
     c5a:	    317c 0020 009c 	move.w #32,156(a0)
     c60:	    2079 0001 1c9c 	movea.l 11c9c <scroll>,a0
     c66:	    b0fc 0000      	cmpa.w #0,a0
     c6a:	/-- 6722           	beq.s c8e <interruptHandler+0x44>
     c6c:	|   3039 0001 1c9a 	move.w 11c9a <frameCounter>,d0
     c72:	|   723f           	moveq #63,d1
     c74:	|   c081           	and.l d1,d0
     c76:	|   43f9 0000 2d14 	lea 2d14 <sinus>,a1
     c7c:	|   1031 0800      	move.b (0,a1,d0.l),d0
     c80:	|   7200           	moveq #0,d1
     c82:	|   1200           	move.b d0,d1
     c84:	|   e989           	lsl.l #4,d1
     c86:	|   0240 00ff      	andi.w #255,d0
     c8a:	|   8041           	or.w d1,d0
     c8c:	|   3080           	move.w d0,(a0)
     c8e:	\-> 47f9 0000 12c8 	lea 12c8 <incbin_player_start>,a3
     c94:	    2c7c 00df f000 	movea.l #14675968,a6
     c9a:	    48e7 ffec      	movem.l d0-a2/a4-a5,-(sp)
     c9e:	    4eab 0004      	jsr 4(a3)
     ca2:	    4cdf 37ff      	movem.l (sp)+,d0-a2/a4-a5
     ca6:	    3039 0001 1c9a 	move.w 11c9a <frameCounter>,d0
     cac:	    5240           	addq.w #1,d0
     cae:	    33c0 0001 1c9a 	move.w d0,11c9a <frameCounter>
     cb4:	    4cdf 4b03      	movem.l (sp)+,d0-d1/a0-a1/a3/a6
     cb8:	    4e73           	rte

00000cba <KPrintF>:
     cba:	    4fef ff80      	lea -128(sp),sp
     cbe:	    48e7 0032      	movem.l a2-a3/a6,-(sp)
     cc2:	    3039 00f0 ff60 	move.w f0ff60 <_end+0xefe2bc>,d0
     cc8:	    0c40 4eb9      	cmpi.w #20153,d0
     ccc:	/-- 672a           	beq.s cf8 <KPrintF+0x3e>
     cce:	|   0c40 a00e      	cmpi.w #-24562,d0
     cd2:	+-- 6724           	beq.s cf8 <KPrintF+0x3e>
     cd4:	|   2c79 0001 1c96 	movea.l 11c96 <SysBase>,a6
     cda:	|   206f 0090      	movea.l 144(sp),a0
     cde:	|   43ef 0094      	lea 148(sp),a1
     ce2:	|   45f9 0000 11a2 	lea 11a2 <KPutCharX>,a2
     ce8:	|   97cb           	suba.l a3,a3
     cea:	|   4eae fdf6      	jsr -522(a6)
     cee:	|   4cdf 4c00      	movem.l (sp)+,a2-a3/a6
     cf2:	|   4fef 0080      	lea 128(sp),sp
     cf6:	|   4e75           	rts
     cf8:	\-> 2c79 0001 1c96 	movea.l 11c96 <SysBase>,a6
     cfe:	    206f 0090      	movea.l 144(sp),a0
     d02:	    43ef 0094      	lea 148(sp),a1
     d06:	    45f9 0000 11b0 	lea 11b0 <PutChar>,a2
     d0c:	    47ef 000c      	lea 12(sp),a3
     d10:	    4eae fdf6      	jsr -522(a6)
     d14:	    2f0b           	move.l a3,-(sp)
     d16:	    4878 0056      	pea 56 <_start+0x56>
     d1a:	    4eb9 00f0 ff60 	jsr f0ff60 <_end+0xefe2bc>
     d20:	    508f           	addq.l #8,sp
     d22:	    4cdf 4c00      	movem.l (sp)+,a2-a3/a6
     d26:	    4fef 0080      	lea 128(sp),sp
     d2a:	    4e75           	rts

00000d2c <warpmode>:
     d2c:	       598f           	subq.l #4,sp
     d2e:	       2f02           	move.l d2,-(sp)
     d30:	       3039 00f0 ff60 	move.w f0ff60 <_end+0xefe2bc>,d0
     d36:	       0c40 4eb9      	cmpi.w #20153,d0
     d3a:	   /-- 670c           	beq.s d48 <warpmode+0x1c>
     d3c:	   |   0c40 a00e      	cmpi.w #-24562,d0
     d40:	   +-- 6706           	beq.s d48 <warpmode+0x1c>
     d42:	   |   241f           	move.l (sp)+,d2
     d44:	   |   588f           	addq.l #4,sp
     d46:	   |   4e75           	rts
     d48:	   \-> 4aaf 000c      	tst.l 12(sp)
     d4c:	/----- 674c           	beq.s d9a <warpmode+0x6e>
     d4e:	|      4878 0001      	pea 1 <_start+0x1>
     d52:	|      740b           	moveq #11,d2
     d54:	|      d48f           	add.l sp,d2
     d56:	|      2f02           	move.l d2,-(sp)
     d58:	|      42a7           	clr.l -(sp)
     d5a:	|      4879 0000 2c6d 	pea 2c6d <incbin_player_end+0x3f>
     d60:	|      4878 ffff      	pea ffffffff <_end+0xfffee35b>
     d64:	|      4878 0052      	pea 52 <_start+0x52>
     d68:	|      4eb9 00f0 ff60 	jsr f0ff60 <_end+0xefe2bc>
     d6e:	|      4fef 0018      	lea 24(sp),sp
     d72:	|      203c 0000 2c48 	move.l #11336,d0
     d78:	|      4878 0001      	pea 1 <_start+0x1>
     d7c:	|      2f02           	move.l d2,-(sp)
     d7e:	|      42a7           	clr.l -(sp)
     d80:	|      2f00           	move.l d0,-(sp)
     d82:	|      4878 ffff      	pea ffffffff <_end+0xfffee35b>
     d86:	|      4878 0052      	pea 52 <_start+0x52>
     d8a:	|      4eb9 00f0 ff60 	jsr f0ff60 <_end+0xefe2bc>
     d90:	|      4fef 0018      	lea 24(sp),sp
     d94:	|  /-> 241f           	move.l (sp)+,d2
     d96:	|  |   588f           	addq.l #4,sp
     d98:	|  |   4e75           	rts
     d9a:	\--|-> 4878 0001      	pea 1 <_start+0x1>
     d9e:	   |   740b           	moveq #11,d2
     da0:	   |   d48f           	add.l sp,d2
     da2:	   |   2f02           	move.l d2,-(sp)
     da4:	   |   42a7           	clr.l -(sp)
     da6:	   |   4879 0000 2c62 	pea 2c62 <incbin_player_end+0x34>
     dac:	   |   4878 ffff      	pea ffffffff <_end+0xfffee35b>
     db0:	   |   4878 0052      	pea 52 <_start+0x52>
     db4:	   |   4eb9 00f0 ff60 	jsr f0ff60 <_end+0xefe2bc>
     dba:	   |   4fef 0018      	lea 24(sp),sp
     dbe:	   |   203c 0000 2c2f 	move.l #11311,d0
     dc4:	   |   4878 0001      	pea 1 <_start+0x1>
     dc8:	   |   2f02           	move.l d2,-(sp)
     dca:	   |   42a7           	clr.l -(sp)
     dcc:	   |   2f00           	move.l d0,-(sp)
     dce:	   |   4878 ffff      	pea ffffffff <_end+0xfffee35b>
     dd2:	   |   4878 0052      	pea 52 <_start+0x52>
     dd6:	   |   4eb9 00f0 ff60 	jsr f0ff60 <_end+0xefe2bc>
     ddc:	   |   4fef 0018      	lea 24(sp),sp
     de0:	   \-- 60b2           	bra.s d94 <warpmode+0x68>

00000de2 <debug_register_copperlist.constprop.0>:
     de2:	       4e55 ffcc      	link.w a5,#-52
     de6:	       2f0a           	move.l a2,-(sp)
     de8:	       226d 000c      	movea.l 12(a5),a1
     dec:	       42ad ffd6      	clr.l -42(a5)
     df0:	       42ad ffda      	clr.l -38(a5)
     df4:	       42ad ffde      	clr.l -34(a5)
     df8:	       42ad ffe2      	clr.l -30(a5)
     dfc:	       42ad ffe6      	clr.l -26(a5)
     e00:	       42ad ffea      	clr.l -22(a5)
     e04:	       42ad ffee      	clr.l -18(a5)
     e08:	       42ad fff2      	clr.l -14(a5)
     e0c:	       42ad fff6      	clr.l -10(a5)
     e10:	       42ad fffa      	clr.l -6(a5)
     e14:	       426d fffe      	clr.w -2(a5)
     e18:	       2b6d 0008 ffce 	move.l 8(a5),-50(a5)
     e1e:	       2b6d 0010 ffd2 	move.l 16(a5),-46(a5)
     e24:	       3b7c 0002 fff6 	move.w #2,-10(a5)
     e2a:	       1011           	move.b (a1),d0
     e2c:	       41ed ffd6      	lea -42(a5),a0
     e30:	/----- 6710           	beq.s e42 <debug_register_copperlist.constprop.0+0x60>
     e32:	|      45ed fff5      	lea -11(a5),a2
     e36:	|  /-> 5289           	addq.l #1,a1
     e38:	|  |   10c0           	move.b d0,(a0)+
     e3a:	|  |   1011           	move.b (a1),d0
     e3c:	+--|-- 6704           	beq.s e42 <debug_register_copperlist.constprop.0+0x60>
     e3e:	|  |   b5c8           	cmpa.l a0,a2
     e40:	|  \-- 66f4           	bne.s e36 <debug_register_copperlist.constprop.0+0x54>
     e42:	\----> 4210           	clr.b (a0)
     e44:	       3039 00f0 ff60 	move.w f0ff60 <_end+0xefe2bc>,d0
     e4a:	       0c40 4eb9      	cmpi.w #20153,d0
     e4e:	   /-- 670e           	beq.s e5e <debug_register_copperlist.constprop.0+0x7c>
     e50:	   |   0c40 a00e      	cmpi.w #-24562,d0
     e54:	   +-- 6708           	beq.s e5e <debug_register_copperlist.constprop.0+0x7c>
     e56:	   |   246d ffc8      	movea.l -56(a5),a2
     e5a:	   |   4e5d           	unlk a5
     e5c:	   |   4e75           	rts
     e5e:	   \-> 42a7           	clr.l -(sp)
     e60:	       42a7           	clr.l -(sp)
     e62:	       486d ffce      	pea -50(a5)
     e66:	       4878 0004      	pea 4 <_start+0x4>
     e6a:	       4878 0058      	pea 58 <_start+0x58>
     e6e:	       4eb9 00f0 ff60 	jsr f0ff60 <_end+0xefe2bc>
     e74:	       4fef 0014      	lea 20(sp),sp
     e78:	       246d ffc8      	movea.l -56(a5),a2
     e7c:	       4e5d           	unlk a5
     e7e:	       4e75           	rts

00000e80 <strlen>:
     e80:	       206f 0004      	movea.l 4(sp),a0
     e84:	       7000           	moveq #0,d0
     e86:	       4a10           	tst.b (a0)
     e88:	/----- 6708           	beq.s e92 <strlen+0x12>
     e8a:	|  /-> 5280           	addq.l #1,d0
     e8c:	|  |   4a30 0800      	tst.b (0,a0,d0.l)
     e90:	|  \-- 66f8           	bne.s e8a <strlen+0xa>
     e92:	\----> 4e75           	rts

00000e94 <memset>:
     e94:	          48e7 3f30      	movem.l d2-d7/a2-a3,-(sp)
     e98:	          202f 0024      	move.l 36(sp),d0
     e9c:	          282f 0028      	move.l 40(sp),d4
     ea0:	          226f 002c      	movea.l 44(sp),a1
     ea4:	          2a09           	move.l a1,d5
     ea6:	          5385           	subq.l #1,d5
     ea8:	          b2fc 0000      	cmpa.w #0,a1
     eac:	/-------- 6700 00ae      	beq.w f5c <memset+0xc8>
     eb0:	|         1e04           	move.b d4,d7
     eb2:	|         2200           	move.l d0,d1
     eb4:	|         4481           	neg.l d1
     eb6:	|         7403           	moveq #3,d2
     eb8:	|         c282           	and.l d2,d1
     eba:	|         7c05           	moveq #5,d6
     ebc:	|         2440           	movea.l d0,a2
     ebe:	|         bc85           	cmp.l d5,d6
     ec0:	|  /----- 646a           	bcc.s f2c <memset+0x98>
     ec2:	|  |      4a81           	tst.l d1
     ec4:	|  |  /-- 6724           	beq.s eea <memset+0x56>
     ec6:	|  |  |   14c4           	move.b d4,(a2)+
     ec8:	|  |  |   5385           	subq.l #1,d5
     eca:	|  |  |   7401           	moveq #1,d2
     ecc:	|  |  |   b481           	cmp.l d1,d2
     ece:	|  |  +-- 671a           	beq.s eea <memset+0x56>
     ed0:	|  |  |   2440           	movea.l d0,a2
     ed2:	|  |  |   548a           	addq.l #2,a2
     ed4:	|  |  |   2040           	movea.l d0,a0
     ed6:	|  |  |   1144 0001      	move.b d4,1(a0)
     eda:	|  |  |   5385           	subq.l #1,d5
     edc:	|  |  |   7403           	moveq #3,d2
     ede:	|  |  |   b481           	cmp.l d1,d2
     ee0:	|  |  +-- 6608           	bne.s eea <memset+0x56>
     ee2:	|  |  |   528a           	addq.l #1,a2
     ee4:	|  |  |   1144 0002      	move.b d4,2(a0)
     ee8:	|  |  |   5385           	subq.l #1,d5
     eea:	|  |  \-> 2609           	move.l a1,d3
     eec:	|  |      9681           	sub.l d1,d3
     eee:	|  |      7c00           	moveq #0,d6
     ef0:	|  |      1c04           	move.b d4,d6
     ef2:	|  |      2406           	move.l d6,d2
     ef4:	|  |      4842           	swap d2
     ef6:	|  |      4242           	clr.w d2
     ef8:	|  |      2042           	movea.l d2,a0
     efa:	|  |      2404           	move.l d4,d2
     efc:	|  |      e14a           	lsl.w #8,d2
     efe:	|  |      4842           	swap d2
     f00:	|  |      4242           	clr.w d2
     f02:	|  |      e18e           	lsl.l #8,d6
     f04:	|  |      2646           	movea.l d6,a3
     f06:	|  |      2c08           	move.l a0,d6
     f08:	|  |      8486           	or.l d6,d2
     f0a:	|  |      2c0b           	move.l a3,d6
     f0c:	|  |      8486           	or.l d6,d2
     f0e:	|  |      1407           	move.b d7,d2
     f10:	|  |      2040           	movea.l d0,a0
     f12:	|  |      d1c1           	adda.l d1,a0
     f14:	|  |      72fc           	moveq #-4,d1
     f16:	|  |      c283           	and.l d3,d1
     f18:	|  |      d288           	add.l a0,d1
     f1a:	|  |  /-> 20c2           	move.l d2,(a0)+
     f1c:	|  |  |   b1c1           	cmpa.l d1,a0
     f1e:	|  |  \-- 66fa           	bne.s f1a <memset+0x86>
     f20:	|  |      72fc           	moveq #-4,d1
     f22:	|  |      c283           	and.l d3,d1
     f24:	|  |      d5c1           	adda.l d1,a2
     f26:	|  |      9a81           	sub.l d1,d5
     f28:	|  |      b283           	cmp.l d3,d1
     f2a:	+--|----- 6730           	beq.s f5c <memset+0xc8>
     f2c:	|  \----> 1484           	move.b d4,(a2)
     f2e:	|         4a85           	tst.l d5
     f30:	+-------- 672a           	beq.s f5c <memset+0xc8>
     f32:	|         1544 0001      	move.b d4,1(a2)
     f36:	|         7201           	moveq #1,d1
     f38:	|         b285           	cmp.l d5,d1
     f3a:	+-------- 6720           	beq.s f5c <memset+0xc8>
     f3c:	|         1544 0002      	move.b d4,2(a2)
     f40:	|         7402           	moveq #2,d2
     f42:	|         b485           	cmp.l d5,d2
     f44:	+-------- 6716           	beq.s f5c <memset+0xc8>
     f46:	|         1544 0003      	move.b d4,3(a2)
     f4a:	|         7c03           	moveq #3,d6
     f4c:	|         bc85           	cmp.l d5,d6
     f4e:	+-------- 670c           	beq.s f5c <memset+0xc8>
     f50:	|         1544 0004      	move.b d4,4(a2)
     f54:	|         5985           	subq.l #4,d5
     f56:	+-------- 6704           	beq.s f5c <memset+0xc8>
     f58:	|         1544 0005      	move.b d4,5(a2)
     f5c:	\-------> 4cdf 0cfc      	movem.l (sp)+,d2-d7/a2-a3
     f60:	          4e75           	rts

00000f62 <memcpy>:
     f62:	          48e7 3e00      	movem.l d2-d6,-(sp)
     f66:	          202f 0018      	move.l 24(sp),d0
     f6a:	          222f 001c      	move.l 28(sp),d1
     f6e:	          262f 0020      	move.l 32(sp),d3
     f72:	          2803           	move.l d3,d4
     f74:	          5384           	subq.l #1,d4
     f76:	          4a83           	tst.l d3
     f78:	/-------- 675e           	beq.s fd8 <memcpy+0x76>
     f7a:	|         2041           	movea.l d1,a0
     f7c:	|         5288           	addq.l #1,a0
     f7e:	|         2400           	move.l d0,d2
     f80:	|         9488           	sub.l a0,d2
     f82:	|         7a02           	moveq #2,d5
     f84:	|         ba82           	cmp.l d2,d5
     f86:	|         55c2           	sc.s d2
     f88:	|         4402           	neg.b d2
     f8a:	|         7c08           	moveq #8,d6
     f8c:	|         bc84           	cmp.l d4,d6
     f8e:	|         55c5           	sc.s d5
     f90:	|         4405           	neg.b d5
     f92:	|         c405           	and.b d5,d2
     f94:	|  /----- 6748           	beq.s fde <memcpy+0x7c>
     f96:	|  |      2400           	move.l d0,d2
     f98:	|  |      8481           	or.l d1,d2
     f9a:	|  |      7a03           	moveq #3,d5
     f9c:	|  |      c485           	and.l d5,d2
     f9e:	|  +----- 663e           	bne.s fde <memcpy+0x7c>
     fa0:	|  |      2041           	movea.l d1,a0
     fa2:	|  |      2240           	movea.l d0,a1
     fa4:	|  |      74fc           	moveq #-4,d2
     fa6:	|  |      c483           	and.l d3,d2
     fa8:	|  |      d481           	add.l d1,d2
     faa:	|  |  /-> 22d8           	move.l (a0)+,(a1)+
     fac:	|  |  |   b488           	cmp.l a0,d2
     fae:	|  |  \-- 66fa           	bne.s faa <memcpy+0x48>
     fb0:	|  |      74fc           	moveq #-4,d2
     fb2:	|  |      c483           	and.l d3,d2
     fb4:	|  |      2040           	movea.l d0,a0
     fb6:	|  |      d1c2           	adda.l d2,a0
     fb8:	|  |      d282           	add.l d2,d1
     fba:	|  |      9882           	sub.l d2,d4
     fbc:	|  |      b483           	cmp.l d3,d2
     fbe:	+--|----- 6718           	beq.s fd8 <memcpy+0x76>
     fc0:	|  |      2241           	movea.l d1,a1
     fc2:	|  |      1091           	move.b (a1),(a0)
     fc4:	|  |      4a84           	tst.l d4
     fc6:	+--|----- 6710           	beq.s fd8 <memcpy+0x76>
     fc8:	|  |      1169 0001 0001 	move.b 1(a1),1(a0)
     fce:	|  |      5384           	subq.l #1,d4
     fd0:	+--|----- 6706           	beq.s fd8 <memcpy+0x76>
     fd2:	|  |      1169 0002 0002 	move.b 2(a1),2(a0)
     fd8:	>--|----> 4cdf 007c      	movem.l (sp)+,d2-d6
     fdc:	|  |      4e75           	rts
     fde:	|  \----> 2240           	movea.l d0,a1
     fe0:	|         d283           	add.l d3,d1
     fe2:	|     /-> 12e8 ffff      	move.b -1(a0),(a1)+
     fe6:	|     |   b288           	cmp.l a0,d1
     fe8:	\-----|-- 67ee           	beq.s fd8 <memcpy+0x76>
     fea:	      |   5288           	addq.l #1,a0
     fec:	      \-- 60f4           	bra.s fe2 <memcpy+0x80>

00000fee <memmove>:
     fee:	             48e7 3c20      	movem.l d2-d5/a2,-(sp)
     ff2:	             202f 0018      	move.l 24(sp),d0
     ff6:	             222f 001c      	move.l 28(sp),d1
     ffa:	             242f 0020      	move.l 32(sp),d2
     ffe:	             2242           	movea.l d2,a1
    1000:	             5389           	subq.l #1,a1
    1002:	             b280           	cmp.l d0,d1
    1004:	      /----- 636c           	bls.s 1072 <memmove+0x84>
    1006:	      |      4a82           	tst.l d2
    1008:	/-----|----- 6762           	beq.s 106c <memmove+0x7e>
    100a:	|     |      2441           	movea.l d1,a2
    100c:	|     |      528a           	addq.l #1,a2
    100e:	|     |      2600           	move.l d0,d3
    1010:	|     |      968a           	sub.l a2,d3
    1012:	|     |      7802           	moveq #2,d4
    1014:	|     |      b883           	cmp.l d3,d4
    1016:	|     |      55c3           	sc.s d3
    1018:	|     |      4403           	neg.b d3
    101a:	|     |      7a08           	moveq #8,d5
    101c:	|     |      ba89           	cmp.l a1,d5
    101e:	|     |      55c4           	sc.s d4
    1020:	|     |      4404           	neg.b d4
    1022:	|     |      c604           	and.b d4,d3
    1024:	|  /--|----- 6770           	beq.s 1096 <memmove+0xa8>
    1026:	|  |  |      2600           	move.l d0,d3
    1028:	|  |  |      8681           	or.l d1,d3
    102a:	|  |  |      7803           	moveq #3,d4
    102c:	|  |  |      c684           	and.l d4,d3
    102e:	|  +--|----- 6666           	bne.s 1096 <memmove+0xa8>
    1030:	|  |  |      2041           	movea.l d1,a0
    1032:	|  |  |      2440           	movea.l d0,a2
    1034:	|  |  |      76fc           	moveq #-4,d3
    1036:	|  |  |      c682           	and.l d2,d3
    1038:	|  |  |      d681           	add.l d1,d3
    103a:	|  |  |  /-> 24d8           	move.l (a0)+,(a2)+
    103c:	|  |  |  |   b688           	cmp.l a0,d3
    103e:	|  |  |  \-- 66fa           	bne.s 103a <memmove+0x4c>
    1040:	|  |  |      76fc           	moveq #-4,d3
    1042:	|  |  |      c682           	and.l d2,d3
    1044:	|  |  |      2440           	movea.l d0,a2
    1046:	|  |  |      d5c3           	adda.l d3,a2
    1048:	|  |  |      2041           	movea.l d1,a0
    104a:	|  |  |      d1c3           	adda.l d3,a0
    104c:	|  |  |      93c3           	suba.l d3,a1
    104e:	|  |  |      b682           	cmp.l d2,d3
    1050:	+--|--|----- 671a           	beq.s 106c <memmove+0x7e>
    1052:	|  |  |      1490           	move.b (a0),(a2)
    1054:	|  |  |      b2fc 0000      	cmpa.w #0,a1
    1058:	+--|--|----- 6712           	beq.s 106c <memmove+0x7e>
    105a:	|  |  |      1568 0001 0001 	move.b 1(a0),1(a2)
    1060:	|  |  |      7a01           	moveq #1,d5
    1062:	|  |  |      ba89           	cmp.l a1,d5
    1064:	+--|--|----- 6706           	beq.s 106c <memmove+0x7e>
    1066:	|  |  |      1568 0002 0002 	move.b 2(a0),2(a2)
    106c:	>--|--|----> 4cdf 043c      	movem.l (sp)+,d2-d5/a2
    1070:	|  |  |      4e75           	rts
    1072:	|  |  \----> 41f1 1800      	lea (0,a1,d1.l),a0
    1076:	|  |         d3c0           	adda.l d0,a1
    1078:	|  |         4a82           	tst.l d2
    107a:	+--|-------- 67f0           	beq.s 106c <memmove+0x7e>
    107c:	|  |         2208           	move.l a0,d1
    107e:	|  |         9282           	sub.l d2,d1
    1080:	|  |     /-> 1290           	move.b (a0),(a1)
    1082:	|  |     |   5388           	subq.l #1,a0
    1084:	|  |     |   5389           	subq.l #1,a1
    1086:	|  |     |   b288           	cmp.l a0,d1
    1088:	+--|-----|-- 67e2           	beq.s 106c <memmove+0x7e>
    108a:	|  |     |   1290           	move.b (a0),(a1)
    108c:	|  |     |   5388           	subq.l #1,a0
    108e:	|  |     |   5389           	subq.l #1,a1
    1090:	|  |     |   b288           	cmp.l a0,d1
    1092:	|  |     \-- 66ec           	bne.s 1080 <memmove+0x92>
    1094:	+--|-------- 60d6           	bra.s 106c <memmove+0x7e>
    1096:	|  \-------> 2240           	movea.l d0,a1
    1098:	|            d282           	add.l d2,d1
    109a:	|        /-> 12ea ffff      	move.b -1(a2),(a1)+
    109e:	|        |   b28a           	cmp.l a2,d1
    10a0:	\--------|-- 67ca           	beq.s 106c <memmove+0x7e>
    10a2:	         |   528a           	addq.l #1,a2
    10a4:	         \-- 60f4           	bra.s 109a <memmove+0xac>
    10a6:	             4e71           	nop

000010a8 <__mulsi3>:
    10a8:	302f 0004      	move.w 4(sp),d0
    10ac:	c0ef 000a      	mulu.w 10(sp),d0
    10b0:	322f 0006      	move.w 6(sp),d1
    10b4:	c2ef 0008      	mulu.w 8(sp),d1
    10b8:	d041           	add.w d1,d0
    10ba:	4840           	swap d0
    10bc:	4240           	clr.w d0
    10be:	322f 0006      	move.w 6(sp),d1
    10c2:	c2ef 000a      	mulu.w 10(sp),d1
    10c6:	d081           	add.l d1,d0
    10c8:	4e75           	rts

000010ca <__udivsi3>:
    10ca:	       2f02           	move.l d2,-(sp)
    10cc:	       222f 000c      	move.l 12(sp),d1
    10d0:	       202f 0008      	move.l 8(sp),d0
    10d4:	       0c81 0001 0000 	cmpi.l #65536,d1
    10da:	   /-- 6416           	bcc.s 10f2 <__udivsi3+0x28>
    10dc:	   |   2400           	move.l d0,d2
    10de:	   |   4242           	clr.w d2
    10e0:	   |   4842           	swap d2
    10e2:	   |   84c1           	divu.w d1,d2
    10e4:	   |   3002           	move.w d2,d0
    10e6:	   |   4840           	swap d0
    10e8:	   |   342f 000a      	move.w 10(sp),d2
    10ec:	   |   84c1           	divu.w d1,d2
    10ee:	   |   3002           	move.w d2,d0
    10f0:	/--|-- 6030           	bra.s 1122 <__udivsi3+0x58>
    10f2:	|  \-> 2401           	move.l d1,d2
    10f4:	|  /-> e289           	lsr.l #1,d1
    10f6:	|  |   e288           	lsr.l #1,d0
    10f8:	|  |   0c81 0001 0000 	cmpi.l #65536,d1
    10fe:	|  \-- 64f4           	bcc.s 10f4 <__udivsi3+0x2a>
    1100:	|      80c1           	divu.w d1,d0
    1102:	|      0280 0000 ffff 	andi.l #65535,d0
    1108:	|      2202           	move.l d2,d1
    110a:	|      c2c0           	mulu.w d0,d1
    110c:	|      4842           	swap d2
    110e:	|      c4c0           	mulu.w d0,d2
    1110:	|      4842           	swap d2
    1112:	|      4a42           	tst.w d2
    1114:	|  /-- 660a           	bne.s 1120 <__udivsi3+0x56>
    1116:	|  |   d282           	add.l d2,d1
    1118:	|  +-- 6506           	bcs.s 1120 <__udivsi3+0x56>
    111a:	|  |   b2af 0008      	cmp.l 8(sp),d1
    111e:	+--|-- 6302           	bls.s 1122 <__udivsi3+0x58>
    1120:	|  \-> 5380           	subq.l #1,d0
    1122:	\----> 241f           	move.l (sp)+,d2
    1124:	       4e75           	rts

00001126 <__divsi3>:
    1126:	    2f02           	move.l d2,-(sp)
    1128:	    7401           	moveq #1,d2
    112a:	    222f 000c      	move.l 12(sp),d1
    112e:	/-- 6a04           	bpl.s 1134 <__divsi3+0xe>
    1130:	|   4481           	neg.l d1
    1132:	|   4402           	neg.b d2
    1134:	\-> 202f 0008      	move.l 8(sp),d0
    1138:	/-- 6a04           	bpl.s 113e <__divsi3+0x18>
    113a:	|   4480           	neg.l d0
    113c:	|   4402           	neg.b d2
    113e:	\-> 2f01           	move.l d1,-(sp)
    1140:	    2f00           	move.l d0,-(sp)
    1142:	    6186           	bsr.s 10ca <__udivsi3>
    1144:	    508f           	addq.l #8,sp
    1146:	    4a02           	tst.b d2
    1148:	/-- 6a02           	bpl.s 114c <__divsi3+0x26>
    114a:	|   4480           	neg.l d0
    114c:	\-> 241f           	move.l (sp)+,d2
    114e:	    4e75           	rts

00001150 <__modsi3>:
    1150:	222f 0008      	move.l 8(sp),d1
    1154:	202f 0004      	move.l 4(sp),d0
    1158:	2f01           	move.l d1,-(sp)
    115a:	2f00           	move.l d0,-(sp)
    115c:	61c8           	bsr.s 1126 <__divsi3>
    115e:	508f           	addq.l #8,sp
    1160:	222f 0008      	move.l 8(sp),d1
    1164:	2f01           	move.l d1,-(sp)
    1166:	2f00           	move.l d0,-(sp)
    1168:	6100 ff3e      	bsr.w 10a8 <__mulsi3>
    116c:	508f           	addq.l #8,sp
    116e:	222f 0004      	move.l 4(sp),d1
    1172:	9280           	sub.l d0,d1
    1174:	2001           	move.l d1,d0
    1176:	4e75           	rts

00001178 <__umodsi3>:
    1178:	222f 0008      	move.l 8(sp),d1
    117c:	202f 0004      	move.l 4(sp),d0
    1180:	2f01           	move.l d1,-(sp)
    1182:	2f00           	move.l d0,-(sp)
    1184:	6100 ff44      	bsr.w 10ca <__udivsi3>
    1188:	508f           	addq.l #8,sp
    118a:	222f 0008      	move.l 8(sp),d1
    118e:	2f01           	move.l d1,-(sp)
    1190:	2f00           	move.l d0,-(sp)
    1192:	6100 ff14      	bsr.w 10a8 <__mulsi3>
    1196:	508f           	addq.l #8,sp
    1198:	222f 0004      	move.l 4(sp),d1
    119c:	9280           	sub.l d0,d1
    119e:	2001           	move.l d1,d0
    11a0:	4e75           	rts

000011a2 <KPutCharX>:
    11a2:	2f0e           	move.l a6,-(sp)
    11a4:	2c78 0004      	movea.l 4 <_start+0x4>,a6
    11a8:	4eae fdfc      	jsr -516(a6)
    11ac:	2c5f           	movea.l (sp)+,a6
    11ae:	4e75           	rts

000011b0 <PutChar>:
    11b0:	16c0           	move.b d0,(a3)+
    11b2:	4e75           	rts

000011b4 <_doynaxdepack_asm>:
    11b4:	                         2458           	movea.l (a0)+,a2
    11b6:	                         d5c8           	adda.l a0,a2
    11b8:	                         264a           	movea.l a2,a3
    11ba:	                         2018           	move.l (a0)+,d0
    11bc:	                         7838           	moveq #56,d4
    11be:	                         7a08           	moveq #8,d5
    11c0:	   /-------------------- 6068           	bra.s 122a <_doynaxdepack_asm+0x76>
    11c2:	/--|-------------------> 12d8           	move.b (a0)+,(a1)+
    11c4:	|  |                     12d8           	move.b (a0)+,(a1)+
    11c6:	+--|-------------------- 51c9 fffa      	dbf d1,11c2 <_doynaxdepack_asm+0xe>
    11ca:	|  |                     e588           	lsl.l #2,d0
    11cc:	|  |     /-------------- 6402           	bcc.s 11d0 <_doynaxdepack_asm+0x1c>
    11ce:	|  |  /--|-------------> 12da           	move.b (a2)+,(a1)+
    11d0:	|  |  |  >-------------> 4a40           	tst.w d0
    11d2:	|  |  |  |           /-- 6608           	bne.s 11dc <_doynaxdepack_asm+0x28>
    11d4:	|  |  |  |           |   b7c8           	cmpa.l a0,a3
    11d6:	|  |  |  |           |   6376           	bls.s 124e <doy_table+0x6>
    11d8:	|  |  |  |           |   3018           	move.w (a0)+,d0
    11da:	|  |  |  |           |   4840           	swap d0
    11dc:	|  |  |  |           \-> ed98           	rol.l #6,d0
    11de:	|  |  |  |               3200           	move.w d0,d1
    11e0:	|  |  |  |               c244           	and.w d4,d1
    11e2:	|  |  |  |               b340           	eor.w d1,d0
    11e4:	|  |  |  |               4cbb 100c 1060 	movem.w (1248 <doy_table>,pc,d1.w),d2-d3/a4
    11ea:	|  |  |  |               e5b8           	rol.l d2,d0
    11ec:	|  |  |  |               c640           	and.w d0,d3
    11ee:	|  |  |  |               b740           	eor.w d3,d0
    11f0:	|  |  |  |               98c3           	suba.w d3,a4
    11f2:	|  |  |  |               d9c9           	adda.l a1,a4
    11f4:	|  |  |  |               4a40           	tst.w d0
    11f6:	|  |  |  |           /-- 6604           	bne.s 11fc <_doynaxdepack_asm+0x48>
    11f8:	|  |  |  |           |   3018           	move.w (a0)+,d0
    11fa:	|  |  |  |           |   4840           	swap d0
    11fc:	|  |  |  |           \-> c245           	and.w d5,d1
    11fe:	|  |  |  |  /----------- 6716           	beq.s 1216 <_doynaxdepack_asm+0x62>
    1200:	|  |  |  |  |            7201           	moveq #1,d1
    1202:	|  |  |  |  |            4a80           	tst.l d0
    1204:	|  |  |  |  |  /-------- 6a0c           	bpl.s 1212 <_doynaxdepack_asm+0x5e>
    1206:	|  |  |  |  |  |         e588           	lsl.l #2,d0
    1208:	|  |  |  |  |  |  /----- 6a06           	bpl.s 1210 <_doynaxdepack_asm+0x5c>
    120a:	|  |  |  |  |  |  |  /-> d301           	addx.b d1,d1
    120c:	|  |  |  |  |  |  |  |   e588           	lsl.l #2,d0
    120e:	|  |  |  |  |  |  |  \-- 6bfa           	bmi.s 120a <_doynaxdepack_asm+0x56>
    1210:	|  |  |  |  |  |  \----> d301           	addx.b d1,d1
    1212:	|  |  |  |  |  \-------> e588           	lsl.l #2,d0
    1214:	|  |  |  |  |        /-- 6402           	bcc.s 1218 <_doynaxdepack_asm+0x64>
    1216:	|  |  |  |  >--------|-> 12dc           	move.b (a4)+,(a1)+
    1218:	|  |  |  |  |        \-> 12dc           	move.b (a4)+,(a1)+
    121a:	|  |  |  |  \----------- 51c9 fffa      	dbf d1,1216 <_doynaxdepack_asm+0x62>
    121e:	|  |  |  |               d080           	add.l d0,d0
    1220:	|  |  |  \-------------- 64ae           	bcc.s 11d0 <_doynaxdepack_asm+0x1c>
    1222:	|  |  |                  4a40           	tst.w d0
    1224:	|  +--|----------------- 6604           	bne.s 122a <_doynaxdepack_asm+0x76>
    1226:	|  |  |                  3018           	move.w (a0)+,d0
    1228:	|  |  |                  4840           	swap d0
    122a:	|  \--|----------------> 7200           	moveq #0,d1
    122c:	|     |                  d080           	add.l d0,d0
    122e:	|     \----------------- 649e           	bcc.s 11ce <_doynaxdepack_asm+0x1a>
    1230:	|                 /----- 6a06           	bpl.s 1238 <_doynaxdepack_asm+0x84>
    1232:	|                 |  /-> d301           	addx.b d1,d1
    1234:	|                 |  |   e588           	lsl.l #2,d0
    1236:	|                 |  \-- 6bfa           	bmi.s 1232 <_doynaxdepack_asm+0x7e>
    1238:	|                 \----> d301           	addx.b d1,d1
    123a:	\--------------------/-X 59c9 ff86      	dbv.s d1,11c2 <_doynaxdepack_asm+0xe>
    123e:	                     |   d080           	add.l d0,d0
    1240:	                     |   b340           	eor.w d1,d0
    1242:	                     |   e098           	ror.l #8,d0
    1244:	                     |   3218           	move.w (a0)+,d1
    1246:	                     \-- 60f2           	bra.s 123a <_doynaxdepack_asm+0x86>

00001248 <doy_table>:
    1248:	0000 0007 ffff 4e75 0001 000f ffff 0000     ......Nu........
    1258:	0003 003f fff7 0000 0004 007f ffef 0000     ...?............
    1268:	0005 00ff ffb7 0000 0007 03ff ff6f 0000     .............o..
    1278:	0007 03ff feb7 0000 000a 1fff fb6f          .............o
